
crackme5.exe:     file format pei-i386


Disassembly of section .text:

00401000 <.text>:
  401000:	55                   	push   %ebp
  401001:	8b ec                	mov    %esp,%ebp
  401003:	b8 e0 12 42 00       	mov    $0x4212e0,%eax
  401008:	5d                   	pop    %ebp
  401009:	c3                   	ret
  40100a:	cc                   	int3
  40100b:	cc                   	int3
  40100c:	cc                   	int3
  40100d:	cc                   	int3
  40100e:	cc                   	int3
  40100f:	cc                   	int3
  401010:	55                   	push   %ebp
  401011:	8b ec                	mov    %esp,%ebp
  401013:	b8 e8 12 42 00       	mov    $0x4212e8,%eax
  401018:	5d                   	pop    %ebp
  401019:	c3                   	ret
  40101a:	cc                   	int3
  40101b:	cc                   	int3
  40101c:	cc                   	int3
  40101d:	cc                   	int3
  40101e:	cc                   	int3
  40101f:	cc                   	int3
  401020:	55                   	push   %ebp
  401021:	8b ec                	mov    %esp,%ebp
  401023:	8b 45 14             	mov    0x14(%ebp),%eax
  401026:	50                   	push   %eax
  401027:	8b 4d 10             	mov    0x10(%ebp),%ecx
  40102a:	51                   	push   %ecx
  40102b:	8b 55 0c             	mov    0xc(%ebp),%edx
  40102e:	52                   	push   %edx
  40102f:	8b 45 08             	mov    0x8(%ebp),%eax
  401032:	50                   	push   %eax
  401033:	e8 c8 ff ff ff       	call   0x401000
  401038:	8b 48 04             	mov    0x4(%eax),%ecx
  40103b:	51                   	push   %ecx
  40103c:	8b 10                	mov    (%eax),%edx
  40103e:	52                   	push   %edx
  40103f:	e8 a8 37 00 00       	call   0x4047ec
  401044:	83 c4 18             	add    $0x18,%esp
  401047:	5d                   	pop    %ebp
  401048:	c3                   	ret
  401049:	cc                   	int3
  40104a:	cc                   	int3
  40104b:	cc                   	int3
  40104c:	cc                   	int3
  40104d:	cc                   	int3
  40104e:	cc                   	int3
  40104f:	cc                   	int3
  401050:	55                   	push   %ebp
  401051:	8b ec                	mov    %esp,%ebp
  401053:	83 ec 08             	sub    $0x8,%esp
  401056:	e8 55 02 00 00       	call   0x4012b0
  40105b:	8d 45 0c             	lea    0xc(%ebp),%eax
  40105e:	89 45 fc             	mov    %eax,-0x4(%ebp)
  401061:	8b 4d fc             	mov    -0x4(%ebp),%ecx
  401064:	51                   	push   %ecx
  401065:	6a 00                	push   $0x0
  401067:	8b 55 08             	mov    0x8(%ebp),%edx
  40106a:	52                   	push   %edx
  40106b:	6a 01                	push   $0x1
  40106d:	e8 b9 38 00 00       	call   0x40492b
  401072:	83 c4 04             	add    $0x4,%esp
  401075:	50                   	push   %eax
  401076:	e8 a5 ff ff ff       	call   0x401020
  40107b:	83 c4 10             	add    $0x10,%esp
  40107e:	89 45 f8             	mov    %eax,-0x8(%ebp)
  401081:	c7 45 fc 00 00 00 00 	movl   $0x0,-0x4(%ebp)
  401088:	8b 45 f8             	mov    -0x8(%ebp),%eax
  40108b:	8b e5                	mov    %ebp,%esp
  40108d:	5d                   	pop    %ebp
  40108e:	c3                   	ret
  40108f:	cc                   	int3
  401090:	55                   	push   %ebp
  401091:	8b ec                	mov    %esp,%ebp
  401093:	8b 45 14             	mov    0x14(%ebp),%eax
  401096:	50                   	push   %eax
  401097:	8b 4d 10             	mov    0x10(%ebp),%ecx
  40109a:	51                   	push   %ecx
  40109b:	8b 55 0c             	mov    0xc(%ebp),%edx
  40109e:	52                   	push   %edx
  40109f:	8b 45 08             	mov    0x8(%ebp),%eax
  4010a2:	50                   	push   %eax
  4010a3:	e8 68 ff ff ff       	call   0x401010
  4010a8:	8b 08                	mov    (%eax),%ecx
  4010aa:	83 c9 01             	or     $0x1,%ecx
  4010ad:	8b 50 04             	mov    0x4(%eax),%edx
  4010b0:	52                   	push   %edx
  4010b1:	51                   	push   %ecx
  4010b2:	e8 95 83 00 00       	call   0x40944c
  4010b7:	83 c4 18             	add    $0x18,%esp
  4010ba:	5d                   	pop    %ebp
  4010bb:	c3                   	ret
  4010bc:	cc                   	int3
  4010bd:	cc                   	int3
  4010be:	cc                   	int3
  4010bf:	cc                   	int3
  4010c0:	55                   	push   %ebp
  4010c1:	8b ec                	mov    %esp,%ebp
  4010c3:	83 ec 08             	sub    $0x8,%esp
  4010c6:	e8 e5 01 00 00       	call   0x4012b0
  4010cb:	8d 45 0c             	lea    0xc(%ebp),%eax
  4010ce:	89 45 fc             	mov    %eax,-0x4(%ebp)
  4010d1:	8b 4d fc             	mov    -0x4(%ebp),%ecx
  4010d4:	51                   	push   %ecx
  4010d5:	6a 00                	push   $0x0
  4010d7:	8b 55 08             	mov    0x8(%ebp),%edx
  4010da:	52                   	push   %edx
  4010db:	6a 00                	push   $0x0
  4010dd:	e8 49 38 00 00       	call   0x40492b
  4010e2:	83 c4 04             	add    $0x4,%esp
  4010e5:	50                   	push   %eax
  4010e6:	e8 a5 ff ff ff       	call   0x401090
  4010eb:	83 c4 10             	add    $0x10,%esp
  4010ee:	89 45 f8             	mov    %eax,-0x8(%ebp)
  4010f1:	c7 45 fc 00 00 00 00 	movl   $0x0,-0x4(%ebp)
  4010f8:	8b 45 f8             	mov    -0x8(%ebp),%eax
  4010fb:	8b e5                	mov    %ebp,%esp
  4010fd:	5d                   	pop    %ebp
  4010fe:	c3                   	ret
  4010ff:	cc                   	int3
  401100:	55                   	push   %ebp
  401101:	8b ec                	mov    %esp,%ebp
  401103:	83 ec 08             	sub    $0x8,%esp
  401106:	c7 45 fc 01 00 00 00 	movl   $0x1,-0x4(%ebp)
  40110d:	c7 45 f8 00 00 00 00 	movl   $0x0,-0x8(%ebp)
  401114:	8b 45 fc             	mov    -0x4(%ebp),%eax
  401117:	50                   	push   %eax
  401118:	ff 15 28 71 41 00    	call   *0x417128
  40111e:	6a 05                	push   $0x5
  401120:	ff 15 04 70 41 00    	call   *0x417004
  401126:	8b 4d f8             	mov    -0x8(%ebp),%ecx
  401129:	51                   	push   %ecx
  40112a:	ff 15 28 71 41 00    	call   *0x417128
  401130:	8b e5                	mov    %ebp,%esp
  401132:	5d                   	pop    %ebp
  401133:	c3                   	ret
  401134:	cc                   	int3
  401135:	cc                   	int3
  401136:	cc                   	int3
  401137:	cc                   	int3
  401138:	cc                   	int3
  401139:	cc                   	int3
  40113a:	cc                   	int3
  40113b:	cc                   	int3
  40113c:	cc                   	int3
  40113d:	cc                   	int3
  40113e:	cc                   	int3
  40113f:	cc                   	int3
  401140:	55                   	push   %ebp
  401141:	8b ec                	mov    %esp,%ebp
  401143:	6a fe                	push   $0xfffffffe
  401145:	68 08 f5 41 00       	push   $0x41f508
  40114a:	68 70 2a 40 00       	push   $0x402a70
  40114f:	64 a1 00 00 00 00    	mov    %fs:0x0,%eax
  401155:	50                   	push   %eax
  401156:	83 c4 f4             	add    $0xfffffff4,%esp
  401159:	53                   	push   %ebx
  40115a:	56                   	push   %esi
  40115b:	57                   	push   %edi
  40115c:	a1 04 00 42 00       	mov    0x420004,%eax
  401161:	31 45 f8             	xor    %eax,-0x8(%ebp)
  401164:	33 c5                	xor    %ebp,%eax
  401166:	50                   	push   %eax
  401167:	8d 45 f0             	lea    -0x10(%ebp),%eax
  40116a:	64 a3 00 00 00 00    	mov    %eax,%fs:0x0
  401170:	89 65 e8             	mov    %esp,-0x18(%ebp)
  401173:	c7 45 fc 00 00 00 00 	movl   $0x0,-0x4(%ebp)
  40117a:	cd 2d                	int    $0x2d
  40117c:	33 c0                	xor    %eax,%eax
  40117e:	83 c0 02             	add    $0x2,%eax
  401181:	c7 45 fc fe ff ff ff 	movl   $0xfffffffe,-0x4(%ebp)
  401188:	eb 20                	jmp    0x4011aa
  40118a:	b8 01 00 00 00       	mov    $0x1,%eax
  40118f:	c3                   	ret
  401190:	8b 65 e8             	mov    -0x18(%ebp),%esp
  401193:	c6 45 e7 00          	movb   $0x0,-0x19(%ebp)
  401197:	c7 45 fc fe ff ff ff 	movl   $0xfffffffe,-0x4(%ebp)
  40119e:	8a 45 e7             	mov    -0x19(%ebp),%al
  4011a1:	eb 09                	jmp    0x4011ac
  4011a3:	c7 45 fc fe ff ff ff 	movl   $0xfffffffe,-0x4(%ebp)
  4011aa:	b0 01                	mov    $0x1,%al
  4011ac:	8b 4d f0             	mov    -0x10(%ebp),%ecx
  4011af:	64 89 0d 00 00 00 00 	mov    %ecx,%fs:0x0
  4011b6:	59                   	pop    %ecx
  4011b7:	5f                   	pop    %edi
  4011b8:	5e                   	pop    %esi
  4011b9:	5b                   	pop    %ebx
  4011ba:	8b e5                	mov    %ebp,%esp
  4011bc:	5d                   	pop    %ebp
  4011bd:	c3                   	ret
  4011be:	cc                   	int3
  4011bf:	cc                   	int3
  4011c0:	55                   	push   %ebp
  4011c1:	8b ec                	mov    %esp,%ebp
  4011c3:	6a fe                	push   $0xfffffffe
  4011c5:	68 28 f5 41 00       	push   $0x41f528
  4011ca:	68 70 2a 40 00       	push   $0x402a70
  4011cf:	64 a1 00 00 00 00    	mov    %fs:0x0,%eax
  4011d5:	50                   	push   %eax
  4011d6:	83 c4 ec             	add    $0xffffffec,%esp
  4011d9:	53                   	push   %ebx
  4011da:	56                   	push   %esi
  4011db:	57                   	push   %edi
  4011dc:	a1 04 00 42 00       	mov    0x420004,%eax
  4011e1:	31 45 f8             	xor    %eax,-0x8(%ebp)
  4011e4:	33 c5                	xor    %ebp,%eax
  4011e6:	50                   	push   %eax
  4011e7:	8d 45 f0             	lea    -0x10(%ebp),%eax
  4011ea:	64 a3 00 00 00 00    	mov    %eax,%fs:0x0
  4011f0:	89 65 e8             	mov    %esp,-0x18(%ebp)
  4011f3:	c7 45 e4 01 00 00 00 	movl   $0x1,-0x1c(%ebp)
  4011fa:	c7 45 e0 00 00 00 00 	movl   $0x0,-0x20(%ebp)
  401201:	c7 45 dc 00 00 00 00 	movl   $0x0,-0x24(%ebp)
  401208:	c7 45 fc 00 00 00 00 	movl   $0x0,-0x4(%ebp)
  40120f:	0f 31                	rdtsc
  401211:	89 45 e0             	mov    %eax,-0x20(%ebp)
  401214:	6a 00                	push   $0x0
  401216:	6a 00                	push   $0x0
  401218:	6a 00                	push   $0x0
  40121a:	68 09 00 01 40       	push   $0x40010009
  40121f:	ff 15 10 70 41 00    	call   *0x417010
  401225:	c7 45 fc fe ff ff ff 	movl   $0xfffffffe,-0x4(%ebp)
  40122c:	eb 17                	jmp    0x401245
  40122e:	b8 01 00 00 00       	mov    $0x1,%eax
  401233:	c3                   	ret
  401234:	8b 65 e8             	mov    -0x18(%ebp),%esp
  401237:	c7 45 e4 00 00 00 00 	movl   $0x0,-0x1c(%ebp)
  40123e:	c7 45 fc fe ff ff ff 	movl   $0xfffffffe,-0x4(%ebp)
  401245:	0f 31                	rdtsc
  401247:	2b 45 e0             	sub    -0x20(%ebp),%eax
  40124a:	89 45 dc             	mov    %eax,-0x24(%ebp)
  40124d:	3d 00 00 15 00       	cmp    $0x150000,%eax
  401252:	76 0c                	jbe    0x401260
  401254:	b8 01 00 00 00       	mov    $0x1,%eax
  401259:	b9 00 00 00 00       	mov    $0x0,%ecx
  40125e:	f6 f5                	div    %ch
  401260:	c7 45 e4 01 00 00 00 	movl   $0x1,-0x1c(%ebp)
  401267:	8b 45 e4             	mov    -0x1c(%ebp),%eax
  40126a:	8b 4d f0             	mov    -0x10(%ebp),%ecx
  40126d:	64 89 0d 00 00 00 00 	mov    %ecx,%fs:0x0
  401274:	59                   	pop    %ecx
  401275:	5f                   	pop    %edi
  401276:	5e                   	pop    %esi
  401277:	5b                   	pop    %ebx
  401278:	8b e5                	mov    %ebp,%esp
  40127a:	5d                   	pop    %ebp
  40127b:	c3                   	ret
  40127c:	cc                   	int3
  40127d:	cc                   	int3
  40127e:	cc                   	int3
  40127f:	cc                   	int3
  401280:	55                   	push   %ebp
  401281:	8b ec                	mov    %esp,%ebp
  401283:	51                   	push   %ecx
  401284:	c7 45 fc 00 00 00 00 	movl   $0x0,-0x4(%ebp)
  40128b:	64 a1 30 00 00 00    	mov    %fs:0x30,%eax
  401291:	8a 40 68             	mov    0x68(%eax),%al
  401294:	24 70                	and    $0x70,%al
  401296:	3c 70                	cmp    $0x70,%al
  401298:	74 04                	je     0x40129e
  40129a:	33 c0                	xor    %eax,%eax
  40129c:	eb 0c                	jmp    0x4012aa
  40129e:	c7 45 fc 01 00 00 00 	movl   $0x1,-0x4(%ebp)
  4012a5:	b8 01 00 00 00       	mov    $0x1,%eax
  4012aa:	8b e5                	mov    %ebp,%esp
  4012ac:	5d                   	pop    %ebp
  4012ad:	c3                   	ret
  4012ae:	cc                   	int3
  4012af:	cc                   	int3
  4012b0:	55                   	push   %ebp
  4012b1:	8b ec                	mov    %esp,%ebp
  4012b3:	5d                   	pop    %ebp
  4012b4:	c3                   	ret
  4012b5:	cc                   	int3
  4012b6:	cc                   	int3
  4012b7:	cc                   	int3
  4012b8:	cc                   	int3
  4012b9:	cc                   	int3
  4012ba:	cc                   	int3
  4012bb:	cc                   	int3
  4012bc:	cc                   	int3
  4012bd:	cc                   	int3
  4012be:	cc                   	int3
  4012bf:	cc                   	int3
  4012c0:	55                   	push   %ebp
  4012c1:	8b ec                	mov    %esp,%ebp
  4012c3:	83 ec 10             	sub    $0x10,%esp
  4012c6:	53                   	push   %ebx
  4012c7:	56                   	push   %esi
  4012c8:	57                   	push   %edi
  4012c9:	8b 45 08             	mov    0x8(%ebp),%eax
  4012cc:	8b 08                	mov    (%eax),%ecx
  4012ce:	89 4d f0             	mov    %ecx,-0x10(%ebp)
  4012d1:	8b 55 08             	mov    0x8(%ebp),%edx
  4012d4:	8b 42 04             	mov    0x4(%edx),%eax
  4012d7:	89 45 f8             	mov    %eax,-0x8(%ebp)
  4012da:	e8 61 fe ff ff       	call   0x401140
  4012df:	0f b6 c8             	movzbl %al,%ecx
  4012e2:	85 c9                	test   %ecx,%ecx
  4012e4:	74 2e                	je     0x401314
  4012e6:	50                   	push   %eax
  4012e7:	33 c0                	xor    %eax,%eax
  4012e9:	0f 9b c0             	setnp  %al
  4012ec:	52                   	push   %edx
  4012ed:	33 d0                	xor    %eax,%edx
  4012ef:	c1 e2 02             	shl    $0x2,%edx
  4012f2:	92                   	xchg   %eax,%edx
  4012f3:	5a                   	pop    %edx
  4012f4:	0b c1                	or     %ecx,%eax
  4012f6:	58                   	pop    %eax
  4012f7:	b8 01 00 00 00       	mov    $0x1,%eax
  4012fc:	b9 00 00 00 00       	mov    $0x0,%ecx
  401301:	f6 f5                	div    %ch
  401303:	50                   	push   %eax
  401304:	33 c0                	xor    %eax,%eax
  401306:	0f 9b c0             	setnp  %al
  401309:	52                   	push   %edx
  40130a:	33 d0                	xor    %eax,%edx
  40130c:	c1 e2 02             	shl    $0x2,%edx
  40130f:	92                   	xchg   %eax,%edx
  401310:	5a                   	pop    %edx
  401311:	0b c1                	or     %ecx,%eax
  401313:	58                   	pop    %eax
  401314:	8b 55 f8             	mov    -0x8(%ebp),%edx
  401317:	8b 82 b0 00 00 00    	mov    0xb0(%edx),%eax
  40131d:	89 45 f4             	mov    %eax,-0xc(%ebp)
  401320:	68 d0 07 00 00       	push   $0x7d0
  401325:	6a 60                	push   $0x60
  401327:	ff 15 40 70 41 00    	call   *0x417040
  40132d:	8b 4d f4             	mov    -0xc(%ebp),%ecx
  401330:	89 4d fc             	mov    %ecx,-0x4(%ebp)
  401333:	8b 55 fc             	mov    -0x4(%ebp),%edx
  401336:	83 ea 01             	sub    $0x1,%edx
  401339:	89 55 fc             	mov    %edx,-0x4(%ebp)
  40133c:	83 7d fc 04          	cmpl   $0x4,-0x4(%ebp)
  401340:	77 76                	ja     0x4013b8
  401342:	8b 45 fc             	mov    -0x4(%ebp),%eax
  401345:	ff 24 85 e8 13 40 00 	jmp    *0x4013e8(,%eax,4)
  40134c:	6a 00                	push   $0x0
  40134e:	68 30 ed 41 00       	push   $0x41ed30
  401353:	68 38 ed 41 00       	push   $0x41ed38
  401358:	6a 00                	push   $0x0
  40135a:	ff 15 20 71 41 00    	call   *0x417120
  401360:	eb 6a                	jmp    0x4013cc
  401362:	6a 00                	push   $0x0
  401364:	68 4c ed 41 00       	push   $0x41ed4c
  401369:	68 54 ed 41 00       	push   $0x41ed54
  40136e:	6a 00                	push   $0x0
  401370:	ff 15 20 71 41 00    	call   *0x417120
  401376:	eb 54                	jmp    0x4013cc
  401378:	6a 00                	push   $0x0
  40137a:	68 70 ed 41 00       	push   $0x41ed70
  40137f:	68 78 ed 41 00       	push   $0x41ed78
  401384:	6a 00                	push   $0x0
  401386:	ff 15 20 71 41 00    	call   *0x417120
  40138c:	eb 3e                	jmp    0x4013cc
  40138e:	6a 00                	push   $0x0
  401390:	68 84 ed 41 00       	push   $0x41ed84
  401395:	68 8c ed 41 00       	push   $0x41ed8c
  40139a:	6a 00                	push   $0x0
  40139c:	ff 15 20 71 41 00    	call   *0x417120
  4013a2:	eb 28                	jmp    0x4013cc
  4013a4:	6a 00                	push   $0x0
  4013a6:	68 a0 ed 41 00       	push   $0x41eda0
  4013ab:	68 a8 ed 41 00       	push   $0x41eda8
  4013b0:	6a 00                	push   $0x0
  4013b2:	ff 15 20 71 41 00    	call   *0x417120
  4013b8:	6a 00                	push   $0x0
  4013ba:	68 b8 ed 41 00       	push   $0x41edb8
  4013bf:	68 c0 ed 41 00       	push   $0x41edc0
  4013c4:	6a 00                	push   $0x0
  4013c6:	ff 15 20 71 41 00    	call   *0x417120
  4013cc:	66 b8 eb 05          	mov    $0x5eb,%ax
  4013d0:	33 c0                	xor    %eax,%eax
  4013d2:	74 f9                	je     0x4013cd
  4013d4:	e8 b8 01 00 00       	call   0x401591
  4013d9:	00 b8 01 00 00 00    	add    %bh,0x1(%eax)
  4013df:	5f                   	pop    %edi
  4013e0:	5e                   	pop    %esi
  4013e1:	5b                   	pop    %ebx
  4013e2:	8b e5                	mov    %ebp,%esp
  4013e4:	5d                   	pop    %ebp
  4013e5:	c2 04 00             	ret    $0x4
  4013e8:	4c                   	dec    %esp
  4013e9:	13 40 00             	adc    0x0(%eax),%eax
  4013ec:	62 13                	bound  %edx,(%ebx)
  4013ee:	40                   	inc    %eax
  4013ef:	00 78 13             	add    %bh,0x13(%eax)
  4013f2:	40                   	inc    %eax
  4013f3:	00 8e 13 40 00 a4    	add    %cl,-0x5bffbfed(%esi)
  4013f9:	13 40 00             	adc    0x0(%eax),%eax
  4013fc:	cc                   	int3
  4013fd:	cc                   	int3
  4013fe:	cc                   	int3
  4013ff:	cc                   	int3
  401400:	55                   	push   %ebp
  401401:	8b ec                	mov    %esp,%ebp
  401403:	8b 45 0c             	mov    0xc(%ebp),%eax
  401406:	50                   	push   %eax
  401407:	8b 4d 08             	mov    0x8(%ebp),%ecx
  40140a:	51                   	push   %ecx
  40140b:	e8 b0 13 00 00       	call   0x4027c0
  401410:	83 c4 08             	add    $0x8,%esp
  401413:	5d                   	pop    %ebp
  401414:	c3                   	ret
  401415:	cc                   	int3
  401416:	cc                   	int3
  401417:	cc                   	int3
  401418:	cc                   	int3
  401419:	cc                   	int3
  40141a:	cc                   	int3
  40141b:	cc                   	int3
  40141c:	cc                   	int3
  40141d:	cc                   	int3
  40141e:	cc                   	int3
  40141f:	cc                   	int3
  401420:	55                   	push   %ebp
  401421:	8b ec                	mov    %esp,%ebp
  401423:	51                   	push   %ecx
  401424:	c7 45 fc 00 00 00 00 	movl   $0x0,-0x4(%ebp)
  40142b:	eb 09                	jmp    0x401436
  40142d:	8b 45 fc             	mov    -0x4(%ebp),%eax
  401430:	83 c0 01             	add    $0x1,%eax
  401433:	89 45 fc             	mov    %eax,-0x4(%ebp)
  401436:	8b 4d fc             	mov    -0x4(%ebp),%ecx
  401439:	3b 4d 0c             	cmp    0xc(%ebp),%ecx
  40143c:	73 16                	jae    0x401454
  40143e:	8b 55 08             	mov    0x8(%ebp),%edx
  401441:	03 55 fc             	add    -0x4(%ebp),%edx
  401444:	0f be 02             	movsbl (%edx),%eax
  401447:	83 f0 22             	xor    $0x22,%eax
  40144a:	8b 4d 08             	mov    0x8(%ebp),%ecx
  40144d:	03 4d fc             	add    -0x4(%ebp),%ecx
  401450:	88 01                	mov    %al,(%ecx)
  401452:	eb d9                	jmp    0x40142d
  401454:	8b 45 08             	mov    0x8(%ebp),%eax
  401457:	8b e5                	mov    %ebp,%esp
  401459:	5d                   	pop    %ebp
  40145a:	c3                   	ret
  40145b:	cc                   	int3
  40145c:	cc                   	int3
  40145d:	cc                   	int3
  40145e:	cc                   	int3
  40145f:	cc                   	int3
  401460:	55                   	push   %ebp
  401461:	8b ec                	mov    %esp,%ebp
  401463:	81 ec 84 00 00 00    	sub    $0x84,%esp
  401469:	a1 04 00 42 00       	mov    0x420004,%eax
  40146e:	33 c5                	xor    %ebp,%eax
  401470:	89 45 fc             	mov    %eax,-0x4(%ebp)
  401473:	56                   	push   %esi
  401474:	57                   	push   %edi
  401475:	c7 85 7c ff ff ff d8 	movl   $0x41edd8,-0x84(%ebp)
  40147c:	ed 41 00 
  40147f:	c7 45 8c 0c ee 41 00 	movl   $0x41ee0c,-0x74(%ebp)
  401486:	b9 09 00 00 00       	mov    $0x9,%ecx
  40148b:	be 40 ee 41 00       	mov    $0x41ee40,%esi
  401490:	8d 7d ac             	lea    -0x54(%ebp),%edi
  401493:	f3 a5                	rep movsl %ds:(%esi),%es:(%edi)
  401495:	66 a5                	movsw  %ds:(%esi),%es:(%edi)
  401497:	8b 45 08             	mov    0x8(%ebp),%eax
  40149a:	89 45 9c             	mov    %eax,-0x64(%ebp)
  40149d:	8b 4d 9c             	mov    -0x64(%ebp),%ecx
  4014a0:	83 c1 01             	add    $0x1,%ecx
  4014a3:	89 4d 84             	mov    %ecx,-0x7c(%ebp)
  4014a6:	8b 55 9c             	mov    -0x64(%ebp),%edx
  4014a9:	8a 02                	mov    (%edx),%al
  4014ab:	88 45 a7             	mov    %al,-0x59(%ebp)
  4014ae:	83 45 9c 01          	addl   $0x1,-0x64(%ebp)
  4014b2:	80 7d a7 00          	cmpb   $0x0,-0x59(%ebp)
  4014b6:	75 ee                	jne    0x4014a6
  4014b8:	8b 4d 9c             	mov    -0x64(%ebp),%ecx
  4014bb:	2b 4d 84             	sub    -0x7c(%ebp),%ecx
  4014be:	89 4d 80             	mov    %ecx,-0x80(%ebp)
  4014c1:	83 7d 80 25          	cmpl   $0x25,-0x80(%ebp)
  4014c5:	73 07                	jae    0x4014ce
  4014c7:	33 c0                	xor    %eax,%eax
  4014c9:	e9 1b 01 00 00       	jmp    0x4015e9
  4014ce:	c7 45 98 00 00 00 00 	movl   $0x0,-0x68(%ebp)
  4014d5:	eb 09                	jmp    0x4014e0
  4014d7:	8b 55 98             	mov    -0x68(%ebp),%edx
  4014da:	83 c2 01             	add    $0x1,%edx
  4014dd:	89 55 98             	mov    %edx,-0x68(%ebp)
  4014e0:	83 7d 98 26          	cmpl   $0x26,-0x68(%ebp)
  4014e4:	7d 11                	jge    0x4014f7
  4014e6:	8b 45 08             	mov    0x8(%ebp),%eax
  4014e9:	03 45 98             	add    -0x68(%ebp),%eax
  4014ec:	8b 4d 98             	mov    -0x68(%ebp),%ecx
  4014ef:	8a 10                	mov    (%eax),%dl
  4014f1:	88 54 0d d4          	mov    %dl,-0x2c(%ebp,%ecx,1)
  4014f5:	eb e0                	jmp    0x4014d7
  4014f7:	c7 45 a0 32 00 00 00 	movl   $0x32,-0x60(%ebp)
  4014fe:	8b 85 7c ff ff ff    	mov    -0x84(%ebp),%eax
  401504:	03 45 a0             	add    -0x60(%ebp),%eax
  401507:	0f be 08             	movsbl (%eax),%ecx
  40150a:	83 e9 30             	sub    $0x30,%ecx
  40150d:	89 4d a8             	mov    %ecx,-0x58(%ebp)
  401510:	8b 55 8c             	mov    -0x74(%ebp),%edx
  401513:	03 55 a0             	add    -0x60(%ebp),%edx
  401516:	0f be 02             	movsbl (%edx),%eax
  401519:	83 e8 30             	sub    $0x30,%eax
  40151c:	89 45 90             	mov    %eax,-0x70(%ebp)
  40151f:	83 7d 90 01          	cmpl   $0x1,-0x70(%ebp)
  401523:	75 14                	jne    0x401539
  401525:	8b 4d a8             	mov    -0x58(%ebp),%ecx
  401528:	0f b6 54 0d d4       	movzbl -0x2c(%ebp,%ecx,1),%edx
  40152d:	83 f2 2f             	xor    $0x2f,%edx
  401530:	8b 45 a8             	mov    -0x58(%ebp),%eax
  401533:	88 54 05 d4          	mov    %dl,-0x2c(%ebp,%eax,1)
  401537:	eb 5a                	jmp    0x401593
  401539:	83 7d 90 01          	cmpl   $0x1,-0x70(%ebp)
  40153d:	7e 36                	jle    0x401575
  40153f:	83 7d 90 02          	cmpl   $0x2,-0x70(%ebp)
  401543:	75 14                	jne    0x401559
  401545:	8b 4d a8             	mov    -0x58(%ebp),%ecx
  401548:	0f b6 54 0d d4       	movzbl -0x2c(%ebp,%ecx,1),%edx
  40154d:	83 c2 33             	add    $0x33,%edx
  401550:	8b 45 a8             	mov    -0x58(%ebp),%eax
  401553:	88 54 05 d4          	mov    %dl,-0x2c(%ebp,%eax,1)
  401557:	eb 1a                	jmp    0x401573
  401559:	83 7d 90 03          	cmpl   $0x3,-0x70(%ebp)
  40155d:	75 14                	jne    0x401573
  40155f:	8b 4d a8             	mov    -0x58(%ebp),%ecx
  401562:	0f b6 44 0d d4       	movzbl -0x2c(%ebp,%ecx,1),%eax
  401567:	99                   	cltd
  401568:	2b c2                	sub    %edx,%eax
  40156a:	d1 f8                	sar    %eax
  40156c:	8b 55 a8             	mov    -0x58(%ebp),%edx
  40156f:	88 44 15 d4          	mov    %al,-0x2c(%ebp,%edx,1)
  401573:	eb 1e                	jmp    0x401593
  401575:	8b 45 8c             	mov    -0x74(%ebp),%eax
  401578:	03 45 a0             	add    -0x60(%ebp),%eax
  40157b:	0f be 08             	movsbl (%eax),%ecx
  40157e:	83 f9 30             	cmp    $0x30,%ecx
  401581:	75 10                	jne    0x401593
  401583:	8b 55 a8             	mov    -0x58(%ebp),%edx
  401586:	8a 44 15 d4          	mov    -0x2c(%ebp,%edx,1),%al
  40158a:	2c 01                	sub    $0x1,%al
  40158c:	8b 4d a8             	mov    -0x58(%ebp),%ecx
  40158f:	88 44 0d d4          	mov    %al,-0x2c(%ebp,%ecx,1)
  401593:	8b 55 a0             	mov    -0x60(%ebp),%edx
  401596:	83 ea 01             	sub    $0x1,%edx
  401599:	89 55 a0             	mov    %edx,-0x60(%ebp)
  40159c:	0f 89 5c ff ff ff    	jns    0x4014fe
  4015a2:	c7 45 94 00 00 00 00 	movl   $0x0,-0x6c(%ebp)
  4015a9:	c7 45 88 01 00 00 00 	movl   $0x1,-0x78(%ebp)
  4015b0:	8b 45 94             	mov    -0x6c(%ebp),%eax
  4015b3:	0f b6 4c 05 d4       	movzbl -0x2c(%ebp,%eax,1),%ecx
  4015b8:	8b 55 94             	mov    -0x6c(%ebp),%edx
  4015bb:	0f b6 44 15 ac       	movzbl -0x54(%ebp,%edx,1),%eax
  4015c0:	3b c8                	cmp    %eax,%ecx
  4015c2:	74 07                	je     0x4015cb
  4015c4:	c7 45 88 00 00 00 00 	movl   $0x0,-0x78(%ebp)
  4015cb:	8b 4d 94             	mov    -0x6c(%ebp),%ecx
  4015ce:	83 c1 01             	add    $0x1,%ecx
  4015d1:	89 4d 94             	mov    %ecx,-0x6c(%ebp)
  4015d4:	83 7d 94 25          	cmpl   $0x25,-0x6c(%ebp)
  4015d8:	75 d6                	jne    0x4015b0
  4015da:	83 7d 88 00          	cmpl   $0x0,-0x78(%ebp)
  4015de:	74 07                	je     0x4015e7
  4015e0:	b8 01 00 00 00       	mov    $0x1,%eax
  4015e5:	eb 02                	jmp    0x4015e9
  4015e7:	33 c0                	xor    %eax,%eax
  4015e9:	5f                   	pop    %edi
  4015ea:	5e                   	pop    %esi
  4015eb:	8b 4d fc             	mov    -0x4(%ebp),%ecx
  4015ee:	33 cd                	xor    %ebp,%ecx
  4015f0:	e8 cf 05 00 00       	call   0x401bc4
  4015f5:	8b e5                	mov    %ebp,%esp
  4015f7:	5d                   	pop    %ebp
  4015f8:	c3                   	ret
  4015f9:	cc                   	int3
  4015fa:	cc                   	int3
  4015fb:	cc                   	int3
  4015fc:	cc                   	int3
  4015fd:	cc                   	int3
  4015fe:	cc                   	int3
  4015ff:	cc                   	int3
  401600:	55                   	push   %ebp
  401601:	8b ec                	mov    %esp,%ebp
  401603:	83 ec 0c             	sub    $0xc,%esp
  401606:	0f 57 c0             	xorps  %xmm0,%xmm0
  401609:	66 0f 13 45 f4       	movlpd %xmm0,-0xc(%ebp)
  40160e:	8b 45 0c             	mov    0xc(%ebp),%eax
  401611:	89 45 fc             	mov    %eax,-0x4(%ebp)
  401614:	eb 09                	jmp    0x40161f
  401616:	8b 4d fc             	mov    -0x4(%ebp),%ecx
  401619:	83 c1 01             	add    $0x1,%ecx
  40161c:	89 4d fc             	mov    %ecx,-0x4(%ebp)
  40161f:	8b 55 fc             	mov    -0x4(%ebp),%edx
  401622:	3b 55 18             	cmp    0x18(%ebp),%edx
  401625:	7f 18                	jg     0x40163f
  401627:	8b 45 08             	mov    0x8(%ebp),%eax
  40162a:	03 45 fc             	add    -0x4(%ebp),%eax
  40162d:	0f b6 00             	movzbl (%eax),%eax
  401630:	99                   	cltd
  401631:	03 45 f4             	add    -0xc(%ebp),%eax
  401634:	13 55 f8             	adc    -0x8(%ebp),%edx
  401637:	89 45 f4             	mov    %eax,-0xc(%ebp)
  40163a:	89 55 f8             	mov    %edx,-0x8(%ebp)
  40163d:	eb d7                	jmp    0x401616
  40163f:	8b 4d 10             	mov    0x10(%ebp),%ecx
  401642:	3b 4d f4             	cmp    -0xc(%ebp),%ecx
  401645:	75 08                	jne    0x40164f
  401647:	8b 55 14             	mov    0x14(%ebp),%edx
  40164a:	3b 55 f8             	cmp    -0x8(%ebp),%edx
  40164d:	74 37                	je     0x401686
  40164f:	50                   	push   %eax
  401650:	33 c0                	xor    %eax,%eax
  401652:	0f 9b c0             	setnp  %al
  401655:	52                   	push   %edx
  401656:	33 d0                	xor    %eax,%edx
  401658:	c1 e2 02             	shl    $0x2,%edx
  40165b:	92                   	xchg   %eax,%edx
  40165c:	5a                   	pop    %edx
  40165d:	0b c1                	or     %ecx,%eax
  40165f:	58                   	pop    %eax
  401660:	b8 02 00 00 00       	mov    $0x2,%eax
  401665:	b9 00 00 00 00       	mov    $0x0,%ecx
  40166a:	f6 f5                	div    %ch
  40166c:	50                   	push   %eax
  40166d:	33 c0                	xor    %eax,%eax
  40166f:	0f 9b c0             	setnp  %al
  401672:	52                   	push   %edx
  401673:	33 d0                	xor    %eax,%edx
  401675:	c1 e2 02             	shl    $0x2,%edx
  401678:	92                   	xchg   %eax,%edx
  401679:	5a                   	pop    %edx
  40167a:	0b c1                	or     %ecx,%eax
  40167c:	58                   	pop    %eax
  40167d:	b8 01 00 00 00       	mov    $0x1,%eax
  401682:	33 d2                	xor    %edx,%edx
  401684:	eb 04                	jmp    0x40168a
  401686:	33 c0                	xor    %eax,%eax
  401688:	33 d2                	xor    %edx,%edx
  40168a:	8b e5                	mov    %ebp,%esp
  40168c:	5d                   	pop    %ebp
  40168d:	c3                   	ret
  40168e:	cc                   	int3
  40168f:	cc                   	int3
  401690:	55                   	push   %ebp
  401691:	8b ec                	mov    %esp,%ebp
  401693:	83 ec 1c             	sub    $0x1c,%esp
  401696:	c7 45 f0 00 00 00 00 	movl   $0x0,-0x10(%ebp)
  40169d:	8b 45 08             	mov    0x8(%ebp),%eax
  4016a0:	89 45 f8             	mov    %eax,-0x8(%ebp)
  4016a3:	8b 4d f8             	mov    -0x8(%ebp),%ecx
  4016a6:	83 c1 01             	add    $0x1,%ecx
  4016a9:	89 4d ec             	mov    %ecx,-0x14(%ebp)
  4016ac:	8b 55 f8             	mov    -0x8(%ebp),%edx
  4016af:	8a 02                	mov    (%edx),%al
  4016b1:	88 45 ff             	mov    %al,-0x1(%ebp)
  4016b4:	83 45 f8 01          	addl   $0x1,-0x8(%ebp)
  4016b8:	80 7d ff 00          	cmpb   $0x0,-0x1(%ebp)
  4016bc:	75 ee                	jne    0x4016ac
  4016be:	8b 4d f8             	mov    -0x8(%ebp),%ecx
  4016c1:	2b 4d ec             	sub    -0x14(%ebp),%ecx
  4016c4:	89 4d e8             	mov    %ecx,-0x18(%ebp)
  4016c7:	8b 55 e8             	mov    -0x18(%ebp),%edx
  4016ca:	89 55 e4             	mov    %edx,-0x1c(%ebp)
  4016cd:	c7 45 f4 00 00 00 00 	movl   $0x0,-0xc(%ebp)
  4016d4:	eb 09                	jmp    0x4016df
  4016d6:	8b 45 f4             	mov    -0xc(%ebp),%eax
  4016d9:	83 c0 01             	add    $0x1,%eax
  4016dc:	89 45 f4             	mov    %eax,-0xc(%ebp)
  4016df:	8b 4d f4             	mov    -0xc(%ebp),%ecx
  4016e2:	3b 4d e4             	cmp    -0x1c(%ebp),%ecx
  4016e5:	7d 11                	jge    0x4016f8
  4016e7:	8b 55 08             	mov    0x8(%ebp),%edx
  4016ea:	03 55 f4             	add    -0xc(%ebp),%edx
  4016ed:	0f be 02             	movsbl (%edx),%eax
  4016f0:	03 45 f0             	add    -0x10(%ebp),%eax
  4016f3:	89 45 f0             	mov    %eax,-0x10(%ebp)
  4016f6:	eb de                	jmp    0x4016d6
  4016f8:	8b 45 f0             	mov    -0x10(%ebp),%eax
  4016fb:	8b e5                	mov    %ebp,%esp
  4016fd:	5d                   	pop    %ebp
  4016fe:	c3                   	ret
  4016ff:	cc                   	int3
  401700:	55                   	push   %ebp
  401701:	8b ec                	mov    %esp,%ebp
  401703:	81 ec a8 00 00 00    	sub    $0xa8,%esp
  401709:	a1 04 00 42 00       	mov    0x420004,%eax
  40170e:	33 c5                	xor    %ebp,%eax
  401710:	89 45 fc             	mov    %eax,-0x4(%ebp)
  401713:	6a 50                	push   $0x50
  401715:	8d 85 5c ff ff ff    	lea    -0xa4(%ebp),%eax
  40171b:	50                   	push   %eax
  40171c:	8b 4d 08             	mov    0x8(%ebp),%ecx
  40171f:	51                   	push   %ecx
  401720:	ff 15 24 71 41 00    	call   *0x417124
  401726:	6a 50                	push   $0x50
  401728:	8d 55 ac             	lea    -0x54(%ebp),%edx
  40172b:	52                   	push   %edx
  40172c:	8b 45 08             	mov    0x8(%ebp),%eax
  40172f:	50                   	push   %eax
  401730:	ff 15 1c 71 41 00    	call   *0x41711c
  401736:	c7 85 58 ff ff ff 00 	movl   $0x0,-0xa8(%ebp)
  40173d:	00 00 00 
  401740:	eb 0f                	jmp    0x401751
  401742:	8b 8d 58 ff ff ff    	mov    -0xa8(%ebp),%ecx
  401748:	83 c1 01             	add    $0x1,%ecx
  40174b:	89 8d 58 ff ff ff    	mov    %ecx,-0xa8(%ebp)
  401751:	8b 95 58 ff ff ff    	mov    -0xa8(%ebp),%edx
  401757:	3b 15 b0 08 42 00    	cmp    0x4208b0,%edx
  40175d:	7d 3b                	jge    0x40179a
  40175f:	8b 85 58 ff ff ff    	mov    -0xa8(%ebp),%eax
  401765:	8b 0c 85 b4 08 42 00 	mov    0x4208b4(,%eax,4),%ecx
  40176c:	51                   	push   %ecx
  40176d:	8d 55 ac             	lea    -0x54(%ebp),%edx
  401770:	52                   	push   %edx
  401771:	e8 8a fc ff ff       	call   0x401400
  401776:	83 c4 08             	add    $0x8,%esp
  401779:	85 c0                	test   %eax,%eax
  40177b:	74 1b                	je     0x401798
  40177d:	8d 45 ac             	lea    -0x54(%ebp),%eax
  401780:	50                   	push   %eax
  401781:	68 cc ee 41 00       	push   $0x41eecc
  401786:	e8 c5 f8 ff ff       	call   0x401050
  40178b:	83 c4 08             	add    $0x8,%esp
  40178e:	c7 05 f0 12 42 00 01 	movl   $0x1,0x4212f0
  401795:	00 00 00 
  401798:	eb a8                	jmp    0x401742
  40179a:	b8 01 00 00 00       	mov    $0x1,%eax
  40179f:	8b 4d fc             	mov    -0x4(%ebp),%ecx
  4017a2:	33 cd                	xor    %ebp,%ecx
  4017a4:	e8 1b 04 00 00       	call   0x401bc4
  4017a9:	8b e5                	mov    %ebp,%esp
  4017ab:	5d                   	pop    %ebp
  4017ac:	c2 08 00             	ret    $0x8
  4017af:	cc                   	int3
  4017b0:	55                   	push   %ebp
  4017b1:	8b ec                	mov    %esp,%ebp
  4017b3:	68 c0 12 40 00       	push   $0x4012c0
  4017b8:	ff 15 2c 70 41 00    	call   *0x41702c
  4017be:	e8 00 00 00 00       	call   0x4017c3
  4017c3:	80 04 24 0a          	addb   $0xa,(%esp)
  4017c7:	68 c0 11 40 00       	push   $0x4011c0
  4017cc:	c3                   	ret
  4017cd:	5d                   	pop    %ebp
  4017ce:	c2 0c 00             	ret    $0xc
  4017d1:	cc                   	int3
  4017d2:	cc                   	int3
  4017d3:	cc                   	int3
  4017d4:	cc                   	int3
  4017d5:	cc                   	int3
  4017d6:	cc                   	int3
  4017d7:	cc                   	int3
  4017d8:	cc                   	int3
  4017d9:	cc                   	int3
  4017da:	cc                   	int3
  4017db:	cc                   	int3
  4017dc:	cc                   	int3
  4017dd:	cc                   	int3
  4017de:	cc                   	int3
  4017df:	cc                   	int3
  4017e0:	55                   	push   %ebp
  4017e1:	8b ec                	mov    %esp,%ebp
  4017e3:	81 ec 7c 01 00 00    	sub    $0x17c,%esp
  4017e9:	a1 04 00 42 00       	mov    0x420004,%eax
  4017ee:	33 c5                	xor    %ebp,%eax
  4017f0:	89 45 fc             	mov    %eax,-0x4(%ebp)
  4017f3:	c6 45 f0 71          	movb   $0x71,-0x10(%ebp)
  4017f7:	c6 45 f1 57          	movb   $0x57,-0xf(%ebp)
  4017fb:	c6 45 f2 41          	movb   $0x41,-0xe(%ebp)
  4017ff:	c6 45 f3 41          	movb   $0x41,-0xd(%ebp)
  401803:	c6 45 f4 47          	movb   $0x47,-0xc(%ebp)
  401807:	c6 45 f5 51          	movb   $0x51,-0xb(%ebp)
  40180b:	c6 45 f6 51          	movb   $0x51,-0xa(%ebp)
  40180f:	c6 45 f7 03          	movb   $0x3,-0x9(%ebp)
  401813:	c6 45 f8 28          	movb   $0x28,-0x8(%ebp)
  401817:	c6 45 f9 00          	movb   $0x0,-0x7(%ebp)
  40181b:	c6 45 d0 28          	movb   $0x28,-0x30(%ebp)
  40181f:	c6 45 d1 63          	movb   $0x63,-0x2f(%ebp)
  401823:	c6 45 d2 41          	movb   $0x41,-0x2e(%ebp)
  401827:	c6 45 d3 41          	movb   $0x41,-0x2d(%ebp)
  40182b:	c6 45 d4 47          	movb   $0x47,-0x2c(%ebp)
  40182f:	c6 45 d5 51          	movb   $0x51,-0x2b(%ebp)
  401833:	c6 45 d6 51          	movb   $0x51,-0x2a(%ebp)
  401837:	c6 45 d7 02          	movb   $0x2,-0x29(%ebp)
  40183b:	c6 45 d8 46          	movb   $0x46,-0x28(%ebp)
  40183f:	c6 45 d9 47          	movb   $0x47,-0x27(%ebp)
  401843:	c6 45 da 4c          	movb   $0x4c,-0x26(%ebp)
  401847:	c6 45 db 4b          	movb   $0x4b,-0x25(%ebp)
  40184b:	c6 45 dc 47          	movb   $0x47,-0x24(%ebp)
  40184f:	c6 45 dd 46          	movb   $0x46,-0x23(%ebp)
  401853:	c6 45 de 03          	movb   $0x3,-0x22(%ebp)
  401857:	c6 45 df 28          	movb   $0x28,-0x21(%ebp)
  40185b:	c6 45 e0 00          	movb   $0x0,-0x20(%ebp)
  40185f:	c6 45 e4 71          	movb   $0x71,-0x1c(%ebp)
  401863:	c6 45 e5 47          	movb   $0x47,-0x1b(%ebp)
  401867:	c6 45 e6 41          	movb   $0x41,-0x1a(%ebp)
  40186b:	c6 45 e7 50          	movb   $0x50,-0x19(%ebp)
  40186f:	c6 45 e8 47          	movb   $0x47,-0x18(%ebp)
  401873:	c6 45 e9 56          	movb   $0x56,-0x17(%ebp)
  401877:	c6 45 ea 02          	movb   $0x2,-0x16(%ebp)
  40187b:	c6 45 eb 49          	movb   $0x49,-0x15(%ebp)
  40187f:	c6 45 ec 47          	movb   $0x47,-0x14(%ebp)
  401883:	c6 45 ed 5b          	movb   $0x5b,-0x13(%ebp)
  401887:	c6 45 ee 00          	movb   $0x0,-0x12(%ebp)
  40188b:	e8 70 f8 ff ff       	call   0x401100
  401890:	6a 00                	push   $0x0
  401892:	68 00 17 40 00       	push   $0x401700
  401897:	ff 15 18 71 41 00    	call   *0x417118
  40189d:	68 e0 ee 41 00       	push   $0x41eee0
  4018a2:	e8 a9 f7 ff ff       	call   0x401050
  4018a7:	83 c4 04             	add    $0x4,%esp
  4018aa:	68 ff 00 00 00       	push   $0xff
  4018af:	8d 85 d0 fe ff ff    	lea    -0x130(%ebp),%eax
  4018b5:	50                   	push   %eax
  4018b6:	68 f4 ee 41 00       	push   $0x41eef4
  4018bb:	e8 00 f8 ff ff       	call   0x4010c0
  4018c0:	83 c4 0c             	add    $0xc,%esp
  4018c3:	8d 4d f0             	lea    -0x10(%ebp),%ecx
  4018c6:	89 8d c4 fe ff ff    	mov    %ecx,-0x13c(%ebp)
  4018cc:	8b 95 c4 fe ff ff    	mov    -0x13c(%ebp),%edx
  4018d2:	83 c2 01             	add    $0x1,%edx
  4018d5:	89 95 a8 fe ff ff    	mov    %edx,-0x158(%ebp)
  4018db:	8b 85 c4 fe ff ff    	mov    -0x13c(%ebp),%eax
  4018e1:	8a 08                	mov    (%eax),%cl
  4018e3:	88 8d cf fe ff ff    	mov    %cl,-0x131(%ebp)
  4018e9:	83 85 c4 fe ff ff 01 	addl   $0x1,-0x13c(%ebp)
  4018f0:	80 bd cf fe ff ff 00 	cmpb   $0x0,-0x131(%ebp)
  4018f7:	75 e2                	jne    0x4018db
  4018f9:	8b 95 c4 fe ff ff    	mov    -0x13c(%ebp),%edx
  4018ff:	2b 95 a8 fe ff ff    	sub    -0x158(%ebp),%edx
  401905:	89 95 a4 fe ff ff    	mov    %edx,-0x15c(%ebp)
  40190b:	8b 85 a4 fe ff ff    	mov    -0x15c(%ebp),%eax
  401911:	50                   	push   %eax
  401912:	8d 4d f0             	lea    -0x10(%ebp),%ecx
  401915:	51                   	push   %ecx
  401916:	e8 05 fb ff ff       	call   0x401420
  40191b:	83 c4 08             	add    $0x8,%esp
  40191e:	8d 55 e4             	lea    -0x1c(%ebp),%edx
  401921:	89 95 c0 fe ff ff    	mov    %edx,-0x140(%ebp)
  401927:	8b 85 c0 fe ff ff    	mov    -0x140(%ebp),%eax
  40192d:	83 c0 01             	add    $0x1,%eax
  401930:	89 85 a0 fe ff ff    	mov    %eax,-0x160(%ebp)
  401936:	8b 8d c0 fe ff ff    	mov    -0x140(%ebp),%ecx
  40193c:	8a 11                	mov    (%ecx),%dl
  40193e:	88 95 ce fe ff ff    	mov    %dl,-0x132(%ebp)
  401944:	83 85 c0 fe ff ff 01 	addl   $0x1,-0x140(%ebp)
  40194b:	80 bd ce fe ff ff 00 	cmpb   $0x0,-0x132(%ebp)
  401952:	75 e2                	jne    0x401936
  401954:	8b 85 c0 fe ff ff    	mov    -0x140(%ebp),%eax
  40195a:	2b 85 a0 fe ff ff    	sub    -0x160(%ebp),%eax
  401960:	89 85 9c fe ff ff    	mov    %eax,-0x164(%ebp)
  401966:	8b 8d 9c fe ff ff    	mov    -0x164(%ebp),%ecx
  40196c:	51                   	push   %ecx
  40196d:	8d 55 e4             	lea    -0x1c(%ebp),%edx
  401970:	52                   	push   %edx
  401971:	e8 aa fa ff ff       	call   0x401420
  401976:	83 c4 08             	add    $0x8,%esp
  401979:	8d 45 d0             	lea    -0x30(%ebp),%eax
  40197c:	89 85 bc fe ff ff    	mov    %eax,-0x144(%ebp)
  401982:	8b 8d bc fe ff ff    	mov    -0x144(%ebp),%ecx
  401988:	83 c1 01             	add    $0x1,%ecx
  40198b:	89 8d 98 fe ff ff    	mov    %ecx,-0x168(%ebp)
  401991:	8b 95 bc fe ff ff    	mov    -0x144(%ebp),%edx
  401997:	8a 02                	mov    (%edx),%al
  401999:	88 85 cd fe ff ff    	mov    %al,-0x133(%ebp)
  40199f:	83 85 bc fe ff ff 01 	addl   $0x1,-0x144(%ebp)
  4019a6:	80 bd cd fe ff ff 00 	cmpb   $0x0,-0x133(%ebp)
  4019ad:	75 e2                	jne    0x401991
  4019af:	8b 8d bc fe ff ff    	mov    -0x144(%ebp),%ecx
  4019b5:	2b 8d 98 fe ff ff    	sub    -0x168(%ebp),%ecx
  4019bb:	89 8d 94 fe ff ff    	mov    %ecx,-0x16c(%ebp)
  4019c1:	8b 95 94 fe ff ff    	mov    -0x16c(%ebp),%edx
  4019c7:	52                   	push   %edx
  4019c8:	8d 45 d0             	lea    -0x30(%ebp),%eax
  4019cb:	50                   	push   %eax
  4019cc:	e8 4f fa ff ff       	call   0x401420
  4019d1:	83 c4 08             	add    $0x8,%esp
  4019d4:	e8 a7 f8 ff ff       	call   0x401280
  4019d9:	85 c0                	test   %eax,%eax
  4019db:	74 2e                	je     0x401a0b
  4019dd:	50                   	push   %eax
  4019de:	33 c0                	xor    %eax,%eax
  4019e0:	0f 9b c0             	setnp  %al
  4019e3:	52                   	push   %edx
  4019e4:	33 d0                	xor    %eax,%edx
  4019e6:	c1 e2 02             	shl    $0x2,%edx
  4019e9:	92                   	xchg   %eax,%edx
  4019ea:	5a                   	pop    %edx
  4019eb:	0b c1                	or     %ecx,%eax
  4019ed:	58                   	pop    %eax
  4019ee:	b8 01 00 00 00       	mov    $0x1,%eax
  4019f3:	b9 00 00 00 00       	mov    $0x0,%ecx
  4019f8:	f6 f5                	div    %ch
  4019fa:	50                   	push   %eax
  4019fb:	33 c0                	xor    %eax,%eax
  4019fd:	0f 9b c0             	setnp  %al
  401a00:	52                   	push   %edx
  401a01:	33 d0                	xor    %eax,%edx
  401a03:	c1 e2 02             	shl    $0x2,%edx
  401a06:	92                   	xchg   %eax,%edx
  401a07:	5a                   	pop    %edx
  401a08:	0b c1                	or     %ecx,%eax
  401a0a:	58                   	pop    %eax
  401a0b:	e9 01 00 00 00       	jmp    0x401a11
  401a10:	68 90 90 eb 0d       	push   $0xdeb9090
  401a15:	81 c4 98 00 00 00    	add    $0x98,%esp
  401a1b:	8b 04 24             	mov    (%esp),%eax
  401a1e:	85 c0                	test   %eax,%eax
  401a20:	75 ee                	jne    0x401a10
  401a22:	8d 8d d0 fe ff ff    	lea    -0x130(%ebp),%ecx
  401a28:	89 8d b8 fe ff ff    	mov    %ecx,-0x148(%ebp)
  401a2e:	8b 95 b8 fe ff ff    	mov    -0x148(%ebp),%edx
  401a34:	83 c2 01             	add    $0x1,%edx
  401a37:	89 95 90 fe ff ff    	mov    %edx,-0x170(%ebp)
  401a3d:	8b 85 b8 fe ff ff    	mov    -0x148(%ebp),%eax
  401a43:	8a 08                	mov    (%eax),%cl
  401a45:	88 8d cc fe ff ff    	mov    %cl,-0x134(%ebp)
  401a4b:	83 85 b8 fe ff ff 01 	addl   $0x1,-0x148(%ebp)
  401a52:	80 bd cc fe ff ff 00 	cmpb   $0x0,-0x134(%ebp)
  401a59:	75 e2                	jne    0x401a3d
  401a5b:	8b 95 b8 fe ff ff    	mov    -0x148(%ebp),%edx
  401a61:	2b 95 90 fe ff ff    	sub    -0x170(%ebp),%edx
  401a67:	89 95 8c fe ff ff    	mov    %edx,-0x174(%ebp)
  401a6d:	8b 85 8c fe ff ff    	mov    -0x174(%ebp),%eax
  401a73:	0f be 8c 05 cf fe ff 	movsbl -0x131(%ebp,%eax,1),%ecx
  401a7a:	ff 
  401a7b:	83 f9 66             	cmp    $0x66,%ecx
  401a7e:	75 7d                	jne    0x401afd
  401a80:	8d 95 d0 fe ff ff    	lea    -0x130(%ebp),%edx
  401a86:	89 95 b4 fe ff ff    	mov    %edx,-0x14c(%ebp)
  401a8c:	8b 85 b4 fe ff ff    	mov    -0x14c(%ebp),%eax
  401a92:	83 c0 01             	add    $0x1,%eax
  401a95:	89 85 88 fe ff ff    	mov    %eax,-0x178(%ebp)
  401a9b:	8b 8d b4 fe ff ff    	mov    -0x14c(%ebp),%ecx
  401aa1:	8a 11                	mov    (%ecx),%dl
  401aa3:	88 95 cb fe ff ff    	mov    %dl,-0x135(%ebp)
  401aa9:	83 85 b4 fe ff ff 01 	addl   $0x1,-0x14c(%ebp)
  401ab0:	80 bd cb fe ff ff 00 	cmpb   $0x0,-0x135(%ebp)
  401ab7:	75 e2                	jne    0x401a9b
  401ab9:	8b 85 b4 fe ff ff    	mov    -0x14c(%ebp),%eax
  401abf:	2b 85 88 fe ff ff    	sub    -0x178(%ebp),%eax
  401ac5:	89 85 84 fe ff ff    	mov    %eax,-0x17c(%ebp)
  401acb:	8b 8d 84 fe ff ff    	mov    -0x17c(%ebp),%ecx
  401ad1:	83 e9 01             	sub    $0x1,%ecx
  401ad4:	89 8d ac fe ff ff    	mov    %ecx,-0x154(%ebp)
  401ada:	81 bd ac fe ff ff ff 	cmpl   $0xff,-0x154(%ebp)
  401ae1:	00 00 00 
  401ae4:	73 02                	jae    0x401ae8
  401ae6:	eb 05                	jmp    0x401aed
  401ae8:	e8 0b 02 00 00       	call   0x401cf8
  401aed:	8b 95 ac fe ff ff    	mov    -0x154(%ebp),%edx
  401af3:	c6 84 15 d0 fe ff ff 	movb   $0x0,-0x130(%ebp,%edx,1)
  401afa:	00 
  401afb:	eb 13                	jmp    0x401b10
  401afd:	8d 45 d0             	lea    -0x30(%ebp),%eax
  401b00:	50                   	push   %eax
  401b01:	e8 4a f5 ff ff       	call   0x401050
  401b06:	83 c4 04             	add    $0x4,%esp
  401b09:	33 c0                	xor    %eax,%eax
  401b0b:	e9 a6 00 00 00       	jmp    0x401bb6
  401b10:	68 8f 01 00 00       	push   $0x18f
  401b15:	6a 00                	push   $0x0
  401b17:	68 e7 92 00 00       	push   $0x92e7
  401b1c:	6a 30                	push   $0x30
  401b1e:	68 60 14 40 00       	push   $0x401460
  401b23:	e8 d8 fa ff ff       	call   0x401600
  401b28:	83 c4 14             	add    $0x14,%esp
  401b2b:	8d 8d d0 fe ff ff    	lea    -0x130(%ebp),%ecx
  401b31:	51                   	push   %ecx
  401b32:	e8 29 f9 ff ff       	call   0x401460
  401b37:	83 c4 04             	add    $0x4,%esp
  401b3a:	85 c0                	test   %eax,%eax
  401b3c:	74 39                	je     0x401b77
  401b3e:	8d 55 f0             	lea    -0x10(%ebp),%edx
  401b41:	52                   	push   %edx
  401b42:	e8 09 f5 ff ff       	call   0x401050
  401b47:	83 c4 04             	add    $0x4,%esp
  401b4a:	8d 45 e4             	lea    -0x1c(%ebp),%eax
  401b4d:	50                   	push   %eax
  401b4e:	e8 fd f4 ff ff       	call   0x401050
  401b53:	83 c4 04             	add    $0x4,%esp
  401b56:	6a 05                	push   $0x5
  401b58:	8d 8d d0 fe ff ff    	lea    -0x130(%ebp),%ecx
  401b5e:	51                   	push   %ecx
  401b5f:	e8 2c fb ff ff       	call   0x401690
  401b64:	83 c4 04             	add    $0x4,%esp
  401b67:	50                   	push   %eax
  401b68:	68 fc ee 41 00       	push   $0x41eefc
  401b6d:	e8 de f4 ff ff       	call   0x401050
  401b72:	83 c4 0c             	add    $0xc,%esp
  401b75:	eb 0c                	jmp    0x401b83
  401b77:	8d 55 d0             	lea    -0x30(%ebp),%edx
  401b7a:	52                   	push   %edx
  401b7b:	e8 d0 f4 ff ff       	call   0x401050
  401b80:	83 c4 04             	add    $0x4,%esp
  401b83:	68 8f 01 00 00       	push   $0x18f
  401b88:	6a 00                	push   $0x0
  401b8a:	68 e7 92 00 00       	push   $0x92e7
  401b8f:	6a 30                	push   $0x30
  401b91:	68 60 14 40 00       	push   $0x401460
  401b96:	e8 65 fa ff ff       	call   0x401600
  401b9b:	83 c4 14             	add    $0x14,%esp
  401b9e:	6a 01                	push   $0x1
  401ba0:	8d 85 b3 fe ff ff    	lea    -0x14d(%ebp),%eax
  401ba6:	50                   	push   %eax
  401ba7:	68 04 ef 41 00       	push   $0x41ef04
  401bac:	e8 0f f5 ff ff       	call   0x4010c0
  401bb1:	83 c4 0c             	add    $0xc,%esp
  401bb4:	33 c0                	xor    %eax,%eax
  401bb6:	8b 4d fc             	mov    -0x4(%ebp),%ecx
  401bb9:	33 cd                	xor    %ebp,%ecx
  401bbb:	e8 04 00 00 00       	call   0x401bc4
  401bc0:	8b e5                	mov    %ebp,%esp
  401bc2:	5d                   	pop    %ebp
  401bc3:	c3                   	ret
  401bc4:	3b 0d 04 00 42 00    	cmp    0x420004,%ecx
  401bca:	f2 75 02             	bnd jne 0x401bcf
  401bcd:	f2 c3                	bnd ret
  401bcf:	f2 e9 28 00 00 00    	bnd jmp 0x401bfd
  401bd5:	55                   	push   %ebp
  401bd6:	8b ec                	mov    %esp,%ebp
  401bd8:	6a 00                	push   $0x0
  401bda:	ff 15 2c 70 41 00    	call   *0x41702c
  401be0:	ff 75 08             	push   0x8(%ebp)
  401be3:	ff 15 c4 70 41 00    	call   *0x4170c4
  401be9:	68 09 04 00 c0       	push   $0xc0000409
  401bee:	ff 15 78 70 41 00    	call   *0x417078
  401bf4:	50                   	push   %eax
  401bf5:	ff 15 c8 70 41 00    	call   *0x4170c8
  401bfb:	5d                   	pop    %ebp
  401bfc:	c3                   	ret
  401bfd:	55                   	push   %ebp
  401bfe:	8b ec                	mov    %esp,%ebp
  401c00:	81 ec 24 03 00 00    	sub    $0x324,%esp
  401c06:	6a 17                	push   $0x17
  401c08:	e8 f7 3f 01 00       	call   0x415c04
  401c0d:	85 c0                	test   %eax,%eax
  401c0f:	74 05                	je     0x401c16
  401c11:	6a 02                	push   $0x2
  401c13:	59                   	pop    %ecx
  401c14:	cd 29                	int    $0x29
  401c16:	a3 e0 09 42 00       	mov    %eax,0x4209e0
  401c1b:	89 0d dc 09 42 00    	mov    %ecx,0x4209dc
  401c21:	89 15 d8 09 42 00    	mov    %edx,0x4209d8
  401c27:	89 1d d4 09 42 00    	mov    %ebx,0x4209d4
  401c2d:	89 35 d0 09 42 00    	mov    %esi,0x4209d0
  401c33:	89 3d cc 09 42 00    	mov    %edi,0x4209cc
  401c39:	66 8c 15 f8 09 42 00 	data16 mov %ss,0x4209f8
  401c40:	66 8c 0d ec 09 42 00 	data16 mov %cs,0x4209ec
  401c47:	66 8c 1d c8 09 42 00 	data16 mov %ds,0x4209c8
  401c4e:	66 8c 05 c4 09 42 00 	data16 mov %es,0x4209c4
  401c55:	66 8c 25 c0 09 42 00 	data16 mov %fs,0x4209c0
  401c5c:	66 8c 2d bc 09 42 00 	data16 mov %gs,0x4209bc
  401c63:	9c                   	pushf
  401c64:	8f 05 f0 09 42 00    	pop    0x4209f0
  401c6a:	8b 45 00             	mov    0x0(%ebp),%eax
  401c6d:	a3 e4 09 42 00       	mov    %eax,0x4209e4
  401c72:	8b 45 04             	mov    0x4(%ebp),%eax
  401c75:	a3 e8 09 42 00       	mov    %eax,0x4209e8
  401c7a:	8d 45 08             	lea    0x8(%ebp),%eax
  401c7d:	a3 f4 09 42 00       	mov    %eax,0x4209f4
  401c82:	8b 85 dc fc ff ff    	mov    -0x324(%ebp),%eax
  401c88:	c7 05 30 09 42 00 01 	movl   $0x10001,0x420930
  401c8f:	00 01 00 
  401c92:	a1 e8 09 42 00       	mov    0x4209e8,%eax
  401c97:	a3 ec 08 42 00       	mov    %eax,0x4208ec
  401c9c:	c7 05 e0 08 42 00 09 	movl   $0xc0000409,0x4208e0
  401ca3:	04 00 c0 
  401ca6:	c7 05 e4 08 42 00 01 	movl   $0x1,0x4208e4
  401cad:	00 00 00 
  401cb0:	c7 05 f0 08 42 00 01 	movl   $0x1,0x4208f0
  401cb7:	00 00 00 
  401cba:	6a 04                	push   $0x4
  401cbc:	58                   	pop    %eax
  401cbd:	6b c0 00             	imul   $0x0,%eax,%eax
  401cc0:	c7 80 f4 08 42 00 02 	movl   $0x2,0x4208f4(%eax)
  401cc7:	00 00 00 
  401cca:	6a 04                	push   $0x4
  401ccc:	58                   	pop    %eax
  401ccd:	6b c0 00             	imul   $0x0,%eax,%eax
  401cd0:	8b 0d 04 00 42 00    	mov    0x420004,%ecx
  401cd6:	89 4c 05 f8          	mov    %ecx,-0x8(%ebp,%eax,1)
  401cda:	6a 04                	push   $0x4
  401cdc:	58                   	pop    %eax
  401cdd:	c1 e0 00             	shl    $0x0,%eax
  401ce0:	8b 0d 00 00 42 00    	mov    0x420000,%ecx
  401ce6:	89 4c 05 f8          	mov    %ecx,-0x8(%ebp,%eax,1)
  401cea:	68 90 71 41 00       	push   $0x417190
  401cef:	e8 e1 fe ff ff       	call   0x401bd5
  401cf4:	8b e5                	mov    %ebp,%esp
  401cf6:	5d                   	pop    %ebp
  401cf7:	c3                   	ret
  401cf8:	55                   	push   %ebp
  401cf9:	8b ec                	mov    %esp,%ebp
  401cfb:	6a 08                	push   $0x8
  401cfd:	e8 02 00 00 00       	call   0x401d04
  401d02:	5d                   	pop    %ebp
  401d03:	c3                   	ret
  401d04:	55                   	push   %ebp
  401d05:	8b ec                	mov    %esp,%ebp
  401d07:	81 ec 1c 03 00 00    	sub    $0x31c,%esp
  401d0d:	6a 17                	push   $0x17
  401d0f:	e8 f0 3e 01 00       	call   0x415c04
  401d14:	85 c0                	test   %eax,%eax
  401d16:	74 05                	je     0x401d1d
  401d18:	8b 4d 08             	mov    0x8(%ebp),%ecx
  401d1b:	cd 29                	int    $0x29
  401d1d:	a3 e0 09 42 00       	mov    %eax,0x4209e0
  401d22:	89 0d dc 09 42 00    	mov    %ecx,0x4209dc
  401d28:	89 15 d8 09 42 00    	mov    %edx,0x4209d8
  401d2e:	89 1d d4 09 42 00    	mov    %ebx,0x4209d4
  401d34:	89 35 d0 09 42 00    	mov    %esi,0x4209d0
  401d3a:	89 3d cc 09 42 00    	mov    %edi,0x4209cc
  401d40:	66 8c 15 f8 09 42 00 	data16 mov %ss,0x4209f8
  401d47:	66 8c 0d ec 09 42 00 	data16 mov %cs,0x4209ec
  401d4e:	66 8c 1d c8 09 42 00 	data16 mov %ds,0x4209c8
  401d55:	66 8c 05 c4 09 42 00 	data16 mov %es,0x4209c4
  401d5c:	66 8c 25 c0 09 42 00 	data16 mov %fs,0x4209c0
  401d63:	66 8c 2d bc 09 42 00 	data16 mov %gs,0x4209bc
  401d6a:	9c                   	pushf
  401d6b:	8f 05 f0 09 42 00    	pop    0x4209f0
  401d71:	8b 45 00             	mov    0x0(%ebp),%eax
  401d74:	a3 e4 09 42 00       	mov    %eax,0x4209e4
  401d79:	8b 45 04             	mov    0x4(%ebp),%eax
  401d7c:	a3 e8 09 42 00       	mov    %eax,0x4209e8
  401d81:	8d 45 08             	lea    0x8(%ebp),%eax
  401d84:	a3 f4 09 42 00       	mov    %eax,0x4209f4
  401d89:	8b 85 e4 fc ff ff    	mov    -0x31c(%ebp),%eax
  401d8f:	a1 e8 09 42 00       	mov    0x4209e8,%eax
  401d94:	a3 ec 08 42 00       	mov    %eax,0x4208ec
  401d99:	c7 05 e0 08 42 00 09 	movl   $0xc0000409,0x4208e0
  401da0:	04 00 c0 
  401da3:	c7 05 e4 08 42 00 01 	movl   $0x1,0x4208e4
  401daa:	00 00 00 
  401dad:	c7 05 f0 08 42 00 01 	movl   $0x1,0x4208f0
  401db4:	00 00 00 
  401db7:	6a 04                	push   $0x4
  401db9:	58                   	pop    %eax
  401dba:	6b c0 00             	imul   $0x0,%eax,%eax
  401dbd:	8b 4d 08             	mov    0x8(%ebp),%ecx
  401dc0:	89 88 f4 08 42 00    	mov    %ecx,0x4208f4(%eax)
  401dc6:	68 90 71 41 00       	push   $0x417190
  401dcb:	e8 05 fe ff ff       	call   0x401bd5
  401dd0:	8b e5                	mov    %ebp,%esp
  401dd2:	5d                   	pop    %ebp
  401dd3:	c3                   	ret
  401dd4:	56                   	push   %esi
  401dd5:	6a 01                	push   $0x1
  401dd7:	e8 0c 7c 00 00       	call   0x4099e8
  401ddc:	e8 4f 05 00 00       	call   0x402330
  401de1:	50                   	push   %eax
  401de2:	e8 c0 85 00 00       	call   0x40a3a7
  401de7:	e8 11 87 00 00       	call   0x40a4fd
  401dec:	8b f0                	mov    %eax,%esi
  401dee:	e8 c0 06 00 00       	call   0x4024b3
  401df3:	6a 01                	push   $0x1
  401df5:	89 06                	mov    %eax,(%esi)
  401df7:	e8 de 02 00 00       	call   0x4020da
  401dfc:	83 c4 0c             	add    $0xc,%esp
  401dff:	5e                   	pop    %esi
  401e00:	84 c0                	test   %al,%al
  401e02:	74 6c                	je     0x401e70
  401e04:	db e2                	fnclex
  401e06:	e8 44 07 00 00       	call   0x40254f
  401e0b:	68 7a 25 40 00       	push   $0x40257a
  401e10:	e8 66 04 00 00       	call   0x40227b
  401e15:	e8 12 05 00 00       	call   0x40232c
  401e1a:	50                   	push   %eax
  401e1b:	e8 81 7f 00 00       	call   0x409da1
  401e20:	59                   	pop    %ecx
  401e21:	59                   	pop    %ecx
  401e22:	85 c0                	test   %eax,%eax
  401e24:	75 4a                	jne    0x401e70
  401e26:	e8 0b 05 00 00       	call   0x402336
  401e2b:	e8 50 05 00 00       	call   0x402380
  401e30:	85 c0                	test   %eax,%eax
  401e32:	74 0b                	je     0x401e3f
  401e34:	68 b3 24 40 00       	push   $0x4024b3
  401e39:	e8 60 7c 00 00       	call   0x409a9e
  401e3e:	59                   	pop    %ecx
  401e3f:	e8 6d 09 00 00       	call   0x4027b1
  401e44:	e8 68 09 00 00       	call   0x4027b1
  401e49:	e8 f4 04 00 00       	call   0x402342
  401e4e:	e8 60 06 00 00       	call   0x4024b3
  401e53:	50                   	push   %eax
  401e54:	e8 0d 86 00 00       	call   0x40a466
  401e59:	59                   	pop    %ecx
  401e5a:	e8 b7 8a 00 00       	call   0x40a916
  401e5f:	84 c0                	test   %al,%al
  401e61:	74 05                	je     0x401e68
  401e63:	e8 12 82 00 00       	call   0x40a07a
  401e68:	e8 46 06 00 00       	call   0x4024b3
  401e6d:	33 c0                	xor    %eax,%eax
  401e6f:	c3                   	ret
  401e70:	6a 07                	push   $0x7
  401e72:	e8 21 05 00 00       	call   0x402398
  401e77:	cc                   	int3
  401e78:	e8 e6 04 00 00       	call   0x402363
  401e7d:	33 c0                	xor    %eax,%eax
  401e7f:	c3                   	ret
  401e80:	e8 75 06 00 00       	call   0x4024fa
  401e85:	e8 29 06 00 00       	call   0x4024b3
  401e8a:	50                   	push   %eax
  401e8b:	e8 3e 86 00 00       	call   0x40a4ce
  401e90:	59                   	pop    %ecx
  401e91:	c3                   	ret
  401e92:	6a 14                	push   $0x14
  401e94:	68 48 f5 41 00       	push   $0x41f548
  401e99:	e8 12 07 00 00       	call   0x4025b0
  401e9e:	6a 01                	push   $0x1
  401ea0:	e8 fc 01 00 00       	call   0x4020a1
  401ea5:	59                   	pop    %ecx
  401ea6:	84 c0                	test   %al,%al
  401ea8:	75 07                	jne    0x401eb1
  401eaa:	6a 07                	push   $0x7
  401eac:	e8 e7 04 00 00       	call   0x402398
  401eb1:	32 db                	xor    %bl,%bl
  401eb3:	88 5d e7             	mov    %bl,-0x19(%ebp)
  401eb6:	83 65 fc 00          	andl   $0x0,-0x4(%ebp)
  401eba:	e8 ad 01 00 00       	call   0x40206c
  401ebf:	88 45 dc             	mov    %al,-0x24(%ebp)
  401ec2:	a1 fc 0b 42 00       	mov    0x420bfc,%eax
  401ec7:	33 c9                	xor    %ecx,%ecx
  401ec9:	41                   	inc    %ecx
  401eca:	3b c1                	cmp    %ecx,%eax
  401ecc:	74 dc                	je     0x401eaa
  401ece:	85 c0                	test   %eax,%eax
  401ed0:	75 49                	jne    0x401f1b
  401ed2:	89 0d fc 0b 42 00    	mov    %ecx,0x420bfc
  401ed8:	68 58 71 41 00       	push   $0x417158
  401edd:	68 40 71 41 00       	push   $0x417140
  401ee2:	e8 f4 81 00 00       	call   0x40a0db
  401ee7:	59                   	pop    %ecx
  401ee8:	59                   	pop    %ecx
  401ee9:	85 c0                	test   %eax,%eax
  401eeb:	74 11                	je     0x401efe
  401eed:	c7 45 fc fe ff ff ff 	movl   $0xfffffffe,-0x4(%ebp)
  401ef4:	b8 ff 00 00 00       	mov    $0xff,%eax
  401ef9:	e9 fd 00 00 00       	jmp    0x401ffb
  401efe:	68 3c 71 41 00       	push   $0x41713c
  401f03:	68 34 71 41 00       	push   $0x417134
  401f08:	e8 72 81 00 00       	call   0x40a07f
  401f0d:	59                   	pop    %ecx
  401f0e:	59                   	pop    %ecx
  401f0f:	c7 05 fc 0b 42 00 02 	movl   $0x2,0x420bfc
  401f16:	00 00 00 
  401f19:	eb 05                	jmp    0x401f20
  401f1b:	8a d9                	mov    %cl,%bl
  401f1d:	88 5d e7             	mov    %bl,-0x19(%ebp)
  401f20:	ff 75 dc             	push   -0x24(%ebp)
  401f23:	e8 d3 02 00 00       	call   0x4021fb
  401f28:	59                   	pop    %ecx
  401f29:	e8 5e 04 00 00       	call   0x40238c
  401f2e:	8b f0                	mov    %eax,%esi
  401f30:	33 ff                	xor    %edi,%edi
  401f32:	39 3e                	cmp    %edi,(%esi)
  401f34:	74 1a                	je     0x401f50
  401f36:	56                   	push   %esi
  401f37:	e8 35 02 00 00       	call   0x402171
  401f3c:	59                   	pop    %ecx
  401f3d:	84 c0                	test   %al,%al
  401f3f:	74 0f                	je     0x401f50
  401f41:	57                   	push   %edi
  401f42:	6a 02                	push   $0x2
  401f44:	57                   	push   %edi
  401f45:	8b 36                	mov    (%esi),%esi
  401f47:	8b ce                	mov    %esi,%ecx
  401f49:	e8 57 06 00 00       	call   0x4025a5
  401f4e:	ff d6                	call   *%esi
  401f50:	e8 3d 04 00 00       	call   0x402392
  401f55:	8b f0                	mov    %eax,%esi
  401f57:	39 3e                	cmp    %edi,(%esi)
  401f59:	74 13                	je     0x401f6e
  401f5b:	56                   	push   %esi
  401f5c:	e8 10 02 00 00       	call   0x402171
  401f61:	59                   	pop    %ecx
  401f62:	84 c0                	test   %al,%al
  401f64:	74 08                	je     0x401f6e
  401f66:	ff 36                	push   (%esi)
  401f68:	e8 ec 83 00 00       	call   0x40a359
  401f6d:	59                   	pop    %ecx
  401f6e:	e8 90 84 00 00       	call   0x40a403
  401f73:	8b f8                	mov    %eax,%edi
  401f75:	e8 83 84 00 00       	call   0x40a3fd
  401f7a:	8b f0                	mov    %eax,%esi
  401f7c:	e8 e5 80 00 00       	call   0x40a066
  401f81:	50                   	push   %eax
  401f82:	ff 37                	push   (%edi)
  401f84:	ff 36                	push   (%esi)
  401f86:	e8 55 f8 ff ff       	call   0x4017e0
  401f8b:	83 c4 0c             	add    $0xc,%esp
  401f8e:	8b f0                	mov    %eax,%esi
  401f90:	e8 21 05 00 00       	call   0x4024b6
  401f95:	84 c0                	test   %al,%al
  401f97:	75 06                	jne    0x401f9f
  401f99:	56                   	push   %esi
  401f9a:	e8 f2 83 00 00       	call   0x40a391
  401f9f:	84 db                	test   %bl,%bl
  401fa1:	75 05                	jne    0x401fa8
  401fa3:	e8 8c 83 00 00       	call   0x40a334
  401fa8:	6a 00                	push   $0x0
  401faa:	6a 01                	push   $0x1
  401fac:	e8 67 02 00 00       	call   0x402218
  401fb1:	59                   	pop    %ecx
  401fb2:	59                   	pop    %ecx
  401fb3:	c7 45 fc fe ff ff ff 	movl   $0xfffffffe,-0x4(%ebp)
  401fba:	8b c6                	mov    %esi,%eax
  401fbc:	eb 3d                	jmp    0x401ffb
  401fbe:	8b 4d ec             	mov    -0x14(%ebp),%ecx
  401fc1:	8b 01                	mov    (%ecx),%eax
  401fc3:	8b 00                	mov    (%eax),%eax
  401fc5:	89 45 e0             	mov    %eax,-0x20(%ebp)
  401fc8:	51                   	push   %ecx
  401fc9:	50                   	push   %eax
  401fca:	e8 a0 78 00 00       	call   0x40986f
  401fcf:	59                   	pop    %ecx
  401fd0:	59                   	pop    %ecx
  401fd1:	c3                   	ret
  401fd2:	8b 65 e8             	mov    -0x18(%ebp),%esp
  401fd5:	e8 dc 04 00 00       	call   0x4024b6
  401fda:	84 c0                	test   %al,%al
  401fdc:	75 08                	jne    0x401fe6
  401fde:	ff 75 e0             	push   -0x20(%ebp)
  401fe1:	e8 5d 83 00 00       	call   0x40a343
  401fe6:	80 7d e7 00          	cmpb   $0x0,-0x19(%ebp)
  401fea:	75 05                	jne    0x401ff1
  401fec:	e8 34 83 00 00       	call   0x40a325
  401ff1:	c7 45 fc fe ff ff ff 	movl   $0xfffffffe,-0x4(%ebp)
  401ff8:	8b 45 e0             	mov    -0x20(%ebp),%eax
  401ffb:	e8 f6 05 00 00       	call   0x4025f6
  402000:	c3                   	ret
  402001:	e8 8a 02 00 00       	call   0x402290
  402006:	e9 87 fe ff ff       	jmp    0x401e92
  40200b:	55                   	push   %ebp
  40200c:	8b ec                	mov    %esp,%ebp
  40200e:	a1 04 00 42 00       	mov    0x420004,%eax
  402013:	83 e0 1f             	and    $0x1f,%eax
  402016:	6a 20                	push   $0x20
  402018:	59                   	pop    %ecx
  402019:	2b c8                	sub    %eax,%ecx
  40201b:	8b 45 08             	mov    0x8(%ebp),%eax
  40201e:	d3 c8                	ror    %cl,%eax
  402020:	33 05 04 00 42 00    	xor    0x420004,%eax
  402026:	5d                   	pop    %ebp
  402027:	c3                   	ret
  402028:	55                   	push   %ebp
  402029:	8b ec                	mov    %esp,%ebp
  40202b:	8b 45 08             	mov    0x8(%ebp),%eax
  40202e:	56                   	push   %esi
  40202f:	8b 48 3c             	mov    0x3c(%eax),%ecx
  402032:	03 c8                	add    %eax,%ecx
  402034:	0f b7 41 14          	movzwl 0x14(%ecx),%eax
  402038:	8d 51 18             	lea    0x18(%ecx),%edx
  40203b:	03 d0                	add    %eax,%edx
  40203d:	0f b7 41 06          	movzwl 0x6(%ecx),%eax
  402041:	6b f0 28             	imul   $0x28,%eax,%esi
  402044:	03 f2                	add    %edx,%esi
  402046:	3b d6                	cmp    %esi,%edx
  402048:	74 19                	je     0x402063
  40204a:	8b 4d 0c             	mov    0xc(%ebp),%ecx
  40204d:	3b 4a 0c             	cmp    0xc(%edx),%ecx
  402050:	72 0a                	jb     0x40205c
  402052:	8b 42 08             	mov    0x8(%edx),%eax
  402055:	03 42 0c             	add    0xc(%edx),%eax
  402058:	3b c8                	cmp    %eax,%ecx
  40205a:	72 0c                	jb     0x402068
  40205c:	83 c2 28             	add    $0x28,%edx
  40205f:	3b d6                	cmp    %esi,%edx
  402061:	75 ea                	jne    0x40204d
  402063:	33 c0                	xor    %eax,%eax
  402065:	5e                   	pop    %esi
  402066:	5d                   	pop    %ebp
  402067:	c3                   	ret
  402068:	8b c2                	mov    %edx,%eax
  40206a:	eb f9                	jmp    0x402065
  40206c:	e8 34 07 00 00       	call   0x4027a5
  402071:	85 c0                	test   %eax,%eax
  402073:	75 03                	jne    0x402078
  402075:	32 c0                	xor    %al,%al
  402077:	c3                   	ret
  402078:	64 a1 18 00 00 00    	mov    %fs:0x18,%eax
  40207e:	56                   	push   %esi
  40207f:	be 00 0c 42 00       	mov    $0x420c00,%esi
  402084:	8b 50 04             	mov    0x4(%eax),%edx
  402087:	eb 04                	jmp    0x40208d
  402089:	3b d0                	cmp    %eax,%edx
  40208b:	74 10                	je     0x40209d
  40208d:	33 c0                	xor    %eax,%eax
  40208f:	8b ca                	mov    %edx,%ecx
  402091:	f0 0f b1 0e          	lock cmpxchg %ecx,(%esi)
  402095:	85 c0                	test   %eax,%eax
  402097:	75 f0                	jne    0x402089
  402099:	32 c0                	xor    %al,%al
  40209b:	5e                   	pop    %esi
  40209c:	c3                   	ret
  40209d:	b0 01                	mov    $0x1,%al
  40209f:	5e                   	pop    %esi
  4020a0:	c3                   	ret
  4020a1:	55                   	push   %ebp
  4020a2:	8b ec                	mov    %esp,%ebp
  4020a4:	83 7d 08 00          	cmpl   $0x0,0x8(%ebp)
  4020a8:	75 07                	jne    0x4020b1
  4020aa:	c6 05 1c 0c 42 00 01 	movb   $0x1,0x420c1c
  4020b1:	e8 55 05 00 00       	call   0x40260b
  4020b6:	e8 1b 0b 00 00       	call   0x402bd6
  4020bb:	84 c0                	test   %al,%al
  4020bd:	75 04                	jne    0x4020c3
  4020bf:	32 c0                	xor    %al,%al
  4020c1:	5d                   	pop    %ebp
  4020c2:	c3                   	ret
  4020c3:	e8 16 89 00 00       	call   0x40a9de
  4020c8:	84 c0                	test   %al,%al
  4020ca:	75 0a                	jne    0x4020d6
  4020cc:	6a 00                	push   $0x0
  4020ce:	e8 2c 0b 00 00       	call   0x402bff
  4020d3:	59                   	pop    %ecx
  4020d4:	eb e9                	jmp    0x4020bf
  4020d6:	b0 01                	mov    $0x1,%al
  4020d8:	5d                   	pop    %ebp
  4020d9:	c3                   	ret
  4020da:	55                   	push   %ebp
  4020db:	8b ec                	mov    %esp,%ebp
  4020dd:	83 ec 0c             	sub    $0xc,%esp
  4020e0:	56                   	push   %esi
  4020e1:	8b 75 08             	mov    0x8(%ebp),%esi
  4020e4:	85 f6                	test   %esi,%esi
  4020e6:	74 05                	je     0x4020ed
  4020e8:	83 fe 01             	cmp    $0x1,%esi
  4020eb:	75 7c                	jne    0x402169
  4020ed:	e8 b3 06 00 00       	call   0x4027a5
  4020f2:	85 c0                	test   %eax,%eax
  4020f4:	74 2a                	je     0x402120
  4020f6:	85 f6                	test   %esi,%esi
  4020f8:	75 26                	jne    0x402120
  4020fa:	68 04 0c 42 00       	push   $0x420c04
  4020ff:	e8 85 87 00 00       	call   0x40a889
  402104:	59                   	pop    %ecx
  402105:	85 c0                	test   %eax,%eax
  402107:	74 04                	je     0x40210d
  402109:	32 c0                	xor    %al,%al
  40210b:	eb 57                	jmp    0x402164
  40210d:	68 10 0c 42 00       	push   $0x420c10
  402112:	e8 72 87 00 00       	call   0x40a889
  402117:	f7 d8                	neg    %eax
  402119:	59                   	pop    %ecx
  40211a:	1a c0                	sbb    %al,%al
  40211c:	fe c0                	inc    %al
  40211e:	eb 44                	jmp    0x402164
  402120:	a1 04 00 42 00       	mov    0x420004,%eax
  402125:	8d 75 f4             	lea    -0xc(%ebp),%esi
  402128:	57                   	push   %edi
  402129:	83 e0 1f             	and    $0x1f,%eax
  40212c:	bf 04 0c 42 00       	mov    $0x420c04,%edi
  402131:	6a 20                	push   $0x20
  402133:	59                   	pop    %ecx
  402134:	2b c8                	sub    %eax,%ecx
  402136:	83 c8 ff             	or     $0xffffffff,%eax
  402139:	d3 c8                	ror    %cl,%eax
  40213b:	33 05 04 00 42 00    	xor    0x420004,%eax
  402141:	89 45 f4             	mov    %eax,-0xc(%ebp)
  402144:	89 45 f8             	mov    %eax,-0x8(%ebp)
  402147:	89 45 fc             	mov    %eax,-0x4(%ebp)
  40214a:	a5                   	movsl  %ds:(%esi),%es:(%edi)
  40214b:	a5                   	movsl  %ds:(%esi),%es:(%edi)
  40214c:	a5                   	movsl  %ds:(%esi),%es:(%edi)
  40214d:	bf 10 0c 42 00       	mov    $0x420c10,%edi
  402152:	89 45 f4             	mov    %eax,-0xc(%ebp)
  402155:	89 45 f8             	mov    %eax,-0x8(%ebp)
  402158:	8d 75 f4             	lea    -0xc(%ebp),%esi
  40215b:	89 45 fc             	mov    %eax,-0x4(%ebp)
  40215e:	b0 01                	mov    $0x1,%al
  402160:	a5                   	movsl  %ds:(%esi),%es:(%edi)
  402161:	a5                   	movsl  %ds:(%esi),%es:(%edi)
  402162:	a5                   	movsl  %ds:(%esi),%es:(%edi)
  402163:	5f                   	pop    %edi
  402164:	5e                   	pop    %esi
  402165:	8b e5                	mov    %ebp,%esp
  402167:	5d                   	pop    %ebp
  402168:	c3                   	ret
  402169:	6a 05                	push   $0x5
  40216b:	e8 28 02 00 00       	call   0x402398
  402170:	cc                   	int3
  402171:	6a 08                	push   $0x8
  402173:	68 68 f5 41 00       	push   $0x41f568
  402178:	e8 33 04 00 00       	call   0x4025b0
  40217d:	83 65 fc 00          	andl   $0x0,-0x4(%ebp)
  402181:	b8 4d 5a 00 00       	mov    $0x5a4d,%eax
  402186:	66 39 05 00 00 40 00 	cmp    %ax,0x400000
  40218d:	75 5d                	jne    0x4021ec
  40218f:	a1 3c 00 40 00       	mov    0x40003c,%eax
  402194:	81 b8 00 00 40 00 50 	cmpl   $0x4550,0x400000(%eax)
  40219b:	45 00 00 
  40219e:	75 4c                	jne    0x4021ec
  4021a0:	b9 0b 01 00 00       	mov    $0x10b,%ecx
  4021a5:	66 39 88 18 00 40 00 	cmp    %cx,0x400018(%eax)
  4021ac:	75 3e                	jne    0x4021ec
  4021ae:	8b 45 08             	mov    0x8(%ebp),%eax
  4021b1:	b9 00 00 40 00       	mov    $0x400000,%ecx
  4021b6:	2b c1                	sub    %ecx,%eax
  4021b8:	50                   	push   %eax
  4021b9:	51                   	push   %ecx
  4021ba:	e8 69 fe ff ff       	call   0x402028
  4021bf:	59                   	pop    %ecx
  4021c0:	59                   	pop    %ecx
  4021c1:	85 c0                	test   %eax,%eax
  4021c3:	74 27                	je     0x4021ec
  4021c5:	83 78 24 00          	cmpl   $0x0,0x24(%eax)
  4021c9:	7c 21                	jl     0x4021ec
  4021cb:	c7 45 fc fe ff ff ff 	movl   $0xfffffffe,-0x4(%ebp)
  4021d2:	b0 01                	mov    $0x1,%al
  4021d4:	eb 1f                	jmp    0x4021f5
  4021d6:	8b 45 ec             	mov    -0x14(%ebp),%eax
  4021d9:	8b 00                	mov    (%eax),%eax
  4021db:	33 c9                	xor    %ecx,%ecx
  4021dd:	81 38 05 00 00 c0    	cmpl   $0xc0000005,(%eax)
  4021e3:	0f 94 c1             	sete   %cl
  4021e6:	8b c1                	mov    %ecx,%eax
  4021e8:	c3                   	ret
  4021e9:	8b 65 e8             	mov    -0x18(%ebp),%esp
  4021ec:	c7 45 fc fe ff ff ff 	movl   $0xfffffffe,-0x4(%ebp)
  4021f3:	32 c0                	xor    %al,%al
  4021f5:	e8 fc 03 00 00       	call   0x4025f6
  4021fa:	c3                   	ret
  4021fb:	55                   	push   %ebp
  4021fc:	8b ec                	mov    %esp,%ebp
  4021fe:	e8 a2 05 00 00       	call   0x4027a5
  402203:	85 c0                	test   %eax,%eax
  402205:	74 0f                	je     0x402216
  402207:	80 7d 08 00          	cmpb   $0x0,0x8(%ebp)
  40220b:	75 09                	jne    0x402216
  40220d:	33 c0                	xor    %eax,%eax
  40220f:	b9 00 0c 42 00       	mov    $0x420c00,%ecx
  402214:	87 01                	xchg   %eax,(%ecx)
  402216:	5d                   	pop    %ebp
  402217:	c3                   	ret
  402218:	55                   	push   %ebp
  402219:	8b ec                	mov    %esp,%ebp
  40221b:	80 3d 1c 0c 42 00 00 	cmpb   $0x0,0x420c1c
  402222:	74 06                	je     0x40222a
  402224:	80 7d 0c 00          	cmpb   $0x0,0xc(%ebp)
  402228:	75 12                	jne    0x40223c
  40222a:	ff 75 08             	push   0x8(%ebp)
  40222d:	e8 be 87 00 00       	call   0x40a9f0
  402232:	ff 75 08             	push   0x8(%ebp)
  402235:	e8 c5 09 00 00       	call   0x402bff
  40223a:	59                   	pop    %ecx
  40223b:	59                   	pop    %ecx
  40223c:	b0 01                	mov    $0x1,%al
  40223e:	5d                   	pop    %ebp
  40223f:	c3                   	ret
  402240:	55                   	push   %ebp
  402241:	8b ec                	mov    %esp,%ebp
  402243:	a1 04 00 42 00       	mov    0x420004,%eax
  402248:	8b c8                	mov    %eax,%ecx
  40224a:	33 05 04 0c 42 00    	xor    0x420c04,%eax
  402250:	83 e1 1f             	and    $0x1f,%ecx
  402253:	ff 75 08             	push   0x8(%ebp)
  402256:	d3 c8                	ror    %cl,%eax
  402258:	83 f8 ff             	cmp    $0xffffffff,%eax
  40225b:	75 07                	jne    0x402264
  40225d:	e8 f4 85 00 00       	call   0x40a856
  402262:	eb 0b                	jmp    0x40226f
  402264:	68 04 0c 42 00       	push   $0x420c04
  402269:	e8 58 86 00 00       	call   0x40a8c6
  40226e:	59                   	pop    %ecx
  40226f:	f7 d8                	neg    %eax
  402271:	59                   	pop    %ecx
  402272:	1b c0                	sbb    %eax,%eax
  402274:	f7 d0                	not    %eax
  402276:	23 45 08             	and    0x8(%ebp),%eax
  402279:	5d                   	pop    %ebp
  40227a:	c3                   	ret
  40227b:	55                   	push   %ebp
  40227c:	8b ec                	mov    %esp,%ebp
  40227e:	ff 75 08             	push   0x8(%ebp)
  402281:	e8 ba ff ff ff       	call   0x402240
  402286:	f7 d8                	neg    %eax
  402288:	59                   	pop    %ecx
  402289:	1b c0                	sbb    %eax,%eax
  40228b:	f7 d8                	neg    %eax
  40228d:	48                   	dec    %eax
  40228e:	5d                   	pop    %ebp
  40228f:	c3                   	ret
  402290:	55                   	push   %ebp
  402291:	8b ec                	mov    %esp,%ebp
  402293:	83 ec 14             	sub    $0x14,%esp
  402296:	83 65 f4 00          	andl   $0x0,-0xc(%ebp)
  40229a:	83 65 f8 00          	andl   $0x0,-0x8(%ebp)
  40229e:	a1 04 00 42 00       	mov    0x420004,%eax
  4022a3:	56                   	push   %esi
  4022a4:	57                   	push   %edi
  4022a5:	bf 4e e6 40 bb       	mov    $0xbb40e64e,%edi
  4022aa:	be 00 00 ff ff       	mov    $0xffff0000,%esi
  4022af:	3b c7                	cmp    %edi,%eax
  4022b1:	74 0d                	je     0x4022c0
  4022b3:	85 c6                	test   %eax,%esi
  4022b5:	74 09                	je     0x4022c0
  4022b7:	f7 d0                	not    %eax
  4022b9:	a3 00 00 42 00       	mov    %eax,0x420000
  4022be:	eb 66                	jmp    0x402326
  4022c0:	8d 45 f4             	lea    -0xc(%ebp),%eax
  4022c3:	50                   	push   %eax
  4022c4:	ff 15 30 70 41 00    	call   *0x417030
  4022ca:	8b 45 f8             	mov    -0x8(%ebp),%eax
  4022cd:	33 45 f4             	xor    -0xc(%ebp),%eax
  4022d0:	89 45 fc             	mov    %eax,-0x4(%ebp)
  4022d3:	ff 15 d0 70 41 00    	call   *0x4170d0
  4022d9:	31 45 fc             	xor    %eax,-0x4(%ebp)
  4022dc:	ff 15 1c 70 41 00    	call   *0x41701c
  4022e2:	31 45 fc             	xor    %eax,-0x4(%ebp)
  4022e5:	8d 45 ec             	lea    -0x14(%ebp),%eax
  4022e8:	50                   	push   %eax
  4022e9:	ff 15 24 70 41 00    	call   *0x417024
  4022ef:	8b 4d f0             	mov    -0x10(%ebp),%ecx
  4022f2:	8d 45 fc             	lea    -0x4(%ebp),%eax
  4022f5:	33 4d ec             	xor    -0x14(%ebp),%ecx
  4022f8:	33 4d fc             	xor    -0x4(%ebp),%ecx
  4022fb:	33 c8                	xor    %eax,%ecx
  4022fd:	3b cf                	cmp    %edi,%ecx
  4022ff:	75 07                	jne    0x402308
  402301:	b9 4f e6 40 bb       	mov    $0xbb40e64f,%ecx
  402306:	eb 10                	jmp    0x402318
  402308:	85 ce                	test   %ecx,%esi
  40230a:	75 0c                	jne    0x402318
  40230c:	8b c1                	mov    %ecx,%eax
  40230e:	0d 11 47 00 00       	or     $0x4711,%eax
  402313:	c1 e0 10             	shl    $0x10,%eax
  402316:	0b c8                	or     %eax,%ecx
  402318:	89 0d 04 00 42 00    	mov    %ecx,0x420004
  40231e:	f7 d1                	not    %ecx
  402320:	89 0d 00 00 42 00    	mov    %ecx,0x420000
  402326:	5f                   	pop    %edi
  402327:	5e                   	pop    %esi
  402328:	8b e5                	mov    %ebp,%esp
  40232a:	5d                   	pop    %ebp
  40232b:	c3                   	ret
  40232c:	33 c0                	xor    %eax,%eax
  40232e:	40                   	inc    %eax
  40232f:	c3                   	ret
  402330:	b8 00 40 00 00       	mov    $0x4000,%eax
  402335:	c3                   	ret
  402336:	68 20 0c 42 00       	push   $0x420c20
  40233b:	ff 15 d4 70 41 00    	call   *0x4170d4
  402341:	c3                   	ret
  402342:	68 00 00 03 00       	push   $0x30000
  402347:	68 00 00 01 00       	push   $0x10000
  40234c:	6a 00                	push   $0x0
  40234e:	e8 af 86 00 00       	call   0x40aa02
  402353:	83 c4 0c             	add    $0xc,%esp
  402356:	85 c0                	test   %eax,%eax
  402358:	75 01                	jne    0x40235b
  40235a:	c3                   	ret
  40235b:	6a 07                	push   $0x7
  40235d:	e8 36 00 00 00       	call   0x402398
  402362:	cc                   	int3
  402363:	e8 98 ec ff ff       	call   0x401000
  402368:	8b 48 04             	mov    0x4(%eax),%ecx
  40236b:	83 08 04             	orl    $0x4,(%eax)
  40236e:	89 48 04             	mov    %ecx,0x4(%eax)
  402371:	e8 9a ec ff ff       	call   0x401010
  402376:	8b 48 04             	mov    0x4(%eax),%ecx
  402379:	83 08 02             	orl    $0x2,(%eax)
  40237c:	89 48 04             	mov    %ecx,0x4(%eax)
  40237f:	c3                   	ret
  402380:	33 c0                	xor    %eax,%eax
  402382:	39 05 0c 00 42 00    	cmp    %eax,0x42000c
  402388:	0f 94 c0             	sete   %al
  40238b:	c3                   	ret
  40238c:	b8 fc 12 42 00       	mov    $0x4212fc,%eax
  402391:	c3                   	ret
  402392:	b8 f8 12 42 00       	mov    $0x4212f8,%eax
  402397:	c3                   	ret
  402398:	55                   	push   %ebp
  402399:	8b ec                	mov    %esp,%ebp
  40239b:	81 ec 24 03 00 00    	sub    $0x324,%esp
  4023a1:	53                   	push   %ebx
  4023a2:	56                   	push   %esi
  4023a3:	6a 17                	push   $0x17
  4023a5:	e8 5a 38 01 00       	call   0x415c04
  4023aa:	85 c0                	test   %eax,%eax
  4023ac:	74 05                	je     0x4023b3
  4023ae:	8b 4d 08             	mov    0x8(%ebp),%ecx
  4023b1:	cd 29                	int    $0x29
  4023b3:	33 f6                	xor    %esi,%esi
  4023b5:	8d 85 dc fc ff ff    	lea    -0x324(%ebp),%eax
  4023bb:	68 cc 02 00 00       	push   $0x2cc
  4023c0:	56                   	push   %esi
  4023c1:	50                   	push   %eax
  4023c2:	89 35 28 0c 42 00    	mov    %esi,0x420c28
  4023c8:	e8 53 08 00 00       	call   0x402c20
  4023cd:	83 c4 0c             	add    $0xc,%esp
  4023d0:	89 85 8c fd ff ff    	mov    %eax,-0x274(%ebp)
  4023d6:	89 8d 88 fd ff ff    	mov    %ecx,-0x278(%ebp)
  4023dc:	89 95 84 fd ff ff    	mov    %edx,-0x27c(%ebp)
  4023e2:	89 9d 80 fd ff ff    	mov    %ebx,-0x280(%ebp)
  4023e8:	89 b5 7c fd ff ff    	mov    %esi,-0x284(%ebp)
  4023ee:	89 bd 78 fd ff ff    	mov    %edi,-0x288(%ebp)
  4023f4:	66 8c 95 a4 fd ff ff 	data16 mov %ss,-0x25c(%ebp)
  4023fb:	66 8c 8d 98 fd ff ff 	data16 mov %cs,-0x268(%ebp)
  402402:	66 8c 9d 74 fd ff ff 	data16 mov %ds,-0x28c(%ebp)
  402409:	66 8c 85 70 fd ff ff 	data16 mov %es,-0x290(%ebp)
  402410:	66 8c a5 6c fd ff ff 	data16 mov %fs,-0x294(%ebp)
  402417:	66 8c ad 68 fd ff ff 	data16 mov %gs,-0x298(%ebp)
  40241e:	9c                   	pushf
  40241f:	8f 85 9c fd ff ff    	pop    -0x264(%ebp)
  402425:	8b 45 04             	mov    0x4(%ebp),%eax
  402428:	89 85 94 fd ff ff    	mov    %eax,-0x26c(%ebp)
  40242e:	8d 45 04             	lea    0x4(%ebp),%eax
  402431:	89 85 a0 fd ff ff    	mov    %eax,-0x260(%ebp)
  402437:	c7 85 dc fc ff ff 01 	movl   $0x10001,-0x324(%ebp)
  40243e:	00 01 00 
  402441:	8b 40 fc             	mov    -0x4(%eax),%eax
  402444:	6a 50                	push   $0x50
  402446:	89 85 90 fd ff ff    	mov    %eax,-0x270(%ebp)
  40244c:	8d 45 a8             	lea    -0x58(%ebp),%eax
  40244f:	56                   	push   %esi
  402450:	50                   	push   %eax
  402451:	e8 ca 07 00 00       	call   0x402c20
  402456:	8b 45 04             	mov    0x4(%ebp),%eax
  402459:	83 c4 0c             	add    $0xc,%esp
  40245c:	c7 45 a8 15 00 00 40 	movl   $0x40000015,-0x58(%ebp)
  402463:	c7 45 ac 01 00 00 00 	movl   $0x1,-0x54(%ebp)
  40246a:	89 45 b4             	mov    %eax,-0x4c(%ebp)
  40246d:	ff 15 28 70 41 00    	call   *0x417028
  402473:	56                   	push   %esi
  402474:	8d 58 ff             	lea    -0x1(%eax),%ebx
  402477:	f7 db                	neg    %ebx
  402479:	8d 45 a8             	lea    -0x58(%ebp),%eax
  40247c:	89 45 f8             	mov    %eax,-0x8(%ebp)
  40247f:	8d 85 dc fc ff ff    	lea    -0x324(%ebp),%eax
  402485:	1a db                	sbb    %bl,%bl
  402487:	89 45 fc             	mov    %eax,-0x4(%ebp)
  40248a:	fe c3                	inc    %bl
  40248c:	ff 15 2c 70 41 00    	call   *0x41702c
  402492:	8d 45 f8             	lea    -0x8(%ebp),%eax
  402495:	50                   	push   %eax
  402496:	ff 15 c4 70 41 00    	call   *0x4170c4
  40249c:	85 c0                	test   %eax,%eax
  40249e:	75 0d                	jne    0x4024ad
  4024a0:	0f b6 c3             	movzbl %bl,%eax
  4024a3:	f7 d8                	neg    %eax
  4024a5:	1b c0                	sbb    %eax,%eax
  4024a7:	21 05 28 0c 42 00    	and    %eax,0x420c28
  4024ad:	5e                   	pop    %esi
  4024ae:	5b                   	pop    %ebx
  4024af:	8b e5                	mov    %ebp,%esp
  4024b1:	5d                   	pop    %ebp
  4024b2:	c3                   	ret
  4024b3:	33 c0                	xor    %eax,%eax
  4024b5:	c3                   	ret
  4024b6:	6a 00                	push   $0x0
  4024b8:	ff 15 20 70 41 00    	call   *0x417020
  4024be:	8b c8                	mov    %eax,%ecx
  4024c0:	85 c9                	test   %ecx,%ecx
  4024c2:	75 03                	jne    0x4024c7
  4024c4:	32 c0                	xor    %al,%al
  4024c6:	c3                   	ret
  4024c7:	b8 4d 5a 00 00       	mov    $0x5a4d,%eax
  4024cc:	66 39 01             	cmp    %ax,(%ecx)
  4024cf:	75 f3                	jne    0x4024c4
  4024d1:	8b 41 3c             	mov    0x3c(%ecx),%eax
  4024d4:	03 c1                	add    %ecx,%eax
  4024d6:	81 38 50 45 00 00    	cmpl   $0x4550,(%eax)
  4024dc:	75 e6                	jne    0x4024c4
  4024de:	b9 0b 01 00 00       	mov    $0x10b,%ecx
  4024e3:	66 39 48 18          	cmp    %cx,0x18(%eax)
  4024e7:	75 db                	jne    0x4024c4
  4024e9:	83 78 74 0e          	cmpl   $0xe,0x74(%eax)
  4024ed:	76 d5                	jbe    0x4024c4
  4024ef:	83 b8 e8 00 00 00 00 	cmpl   $0x0,0xe8(%eax)
  4024f6:	0f 95 c0             	setne  %al
  4024f9:	c3                   	ret
  4024fa:	68 06 25 40 00       	push   $0x402506
  4024ff:	ff 15 2c 70 41 00    	call   *0x41702c
  402505:	c3                   	ret
  402506:	55                   	push   %ebp
  402507:	8b ec                	mov    %esp,%ebp
  402509:	8b 45 08             	mov    0x8(%ebp),%eax
  40250c:	8b 00                	mov    (%eax),%eax
  40250e:	81 38 63 73 6d e0    	cmpl   $0xe06d7363,(%eax)
  402514:	75 25                	jne    0x40253b
  402516:	83 78 10 03          	cmpl   $0x3,0x10(%eax)
  40251a:	75 1f                	jne    0x40253b
  40251c:	8b 40 14             	mov    0x14(%eax),%eax
  40251f:	3d 20 05 93 19       	cmp    $0x19930520,%eax
  402524:	74 1b                	je     0x402541
  402526:	3d 21 05 93 19       	cmp    $0x19930521,%eax
  40252b:	74 14                	je     0x402541
  40252d:	3d 22 05 93 19       	cmp    $0x19930522,%eax
  402532:	74 0d                	je     0x402541
  402534:	3d 00 40 99 01       	cmp    $0x1994000,%eax
  402539:	74 06                	je     0x402541
  40253b:	33 c0                	xor    %eax,%eax
  40253d:	5d                   	pop    %ebp
  40253e:	c2 04 00             	ret    $0x4
  402541:	e8 1b 85 00 00       	call   0x40aa61
  402546:	cc                   	int3
  402547:	83 25 28 0c 42 00 00 	andl   $0x0,0x420c28
  40254e:	c3                   	ret
  40254f:	53                   	push   %ebx
  402550:	56                   	push   %esi
  402551:	be fc f4 41 00       	mov    $0x41f4fc,%esi
  402556:	bb fc f4 41 00       	mov    $0x41f4fc,%ebx
  40255b:	3b f3                	cmp    %ebx,%esi
  40255d:	73 18                	jae    0x402577
  40255f:	57                   	push   %edi
  402560:	8b 3e                	mov    (%esi),%edi
  402562:	85 ff                	test   %edi,%edi
  402564:	74 09                	je     0x40256f
  402566:	8b cf                	mov    %edi,%ecx
  402568:	e8 38 00 00 00       	call   0x4025a5
  40256d:	ff d7                	call   *%edi
  40256f:	83 c6 04             	add    $0x4,%esi
  402572:	3b f3                	cmp    %ebx,%esi
  402574:	72 ea                	jb     0x402560
  402576:	5f                   	pop    %edi
  402577:	5e                   	pop    %esi
  402578:	5b                   	pop    %ebx
  402579:	c3                   	ret
  40257a:	53                   	push   %ebx
  40257b:	56                   	push   %esi
  40257c:	be 04 f5 41 00       	mov    $0x41f504,%esi
  402581:	bb 04 f5 41 00       	mov    $0x41f504,%ebx
  402586:	3b f3                	cmp    %ebx,%esi
  402588:	73 18                	jae    0x4025a2
  40258a:	57                   	push   %edi
  40258b:	8b 3e                	mov    (%esi),%edi
  40258d:	85 ff                	test   %edi,%edi
  40258f:	74 09                	je     0x40259a
  402591:	8b cf                	mov    %edi,%ecx
  402593:	e8 0d 00 00 00       	call   0x4025a5
  402598:	ff d7                	call   *%edi
  40259a:	83 c6 04             	add    $0x4,%esi
  40259d:	3b f3                	cmp    %ebx,%esi
  40259f:	72 ea                	jb     0x40258b
  4025a1:	5f                   	pop    %edi
  4025a2:	5e                   	pop    %esi
  4025a3:	5b                   	pop    %ebx
  4025a4:	c3                   	ret
  4025a5:	ff 25 30 71 41 00    	jmp    *0x417130
  4025ab:	cc                   	int3
  4025ac:	cc                   	int3
  4025ad:	cc                   	int3
  4025ae:	cc                   	int3
  4025af:	cc                   	int3
  4025b0:	68 70 2a 40 00       	push   $0x402a70
  4025b5:	64 ff 35 00 00 00 00 	push   %fs:0x0
  4025bc:	8b 44 24 10          	mov    0x10(%esp),%eax
  4025c0:	89 6c 24 10          	mov    %ebp,0x10(%esp)
  4025c4:	8d 6c 24 10          	lea    0x10(%esp),%ebp
  4025c8:	2b e0                	sub    %eax,%esp
  4025ca:	53                   	push   %ebx
  4025cb:	56                   	push   %esi
  4025cc:	57                   	push   %edi
  4025cd:	a1 04 00 42 00       	mov    0x420004,%eax
  4025d2:	31 45 fc             	xor    %eax,-0x4(%ebp)
  4025d5:	33 c5                	xor    %ebp,%eax
  4025d7:	50                   	push   %eax
  4025d8:	89 65 e8             	mov    %esp,-0x18(%ebp)
  4025db:	ff 75 f8             	push   -0x8(%ebp)
  4025de:	8b 45 fc             	mov    -0x4(%ebp),%eax
  4025e1:	c7 45 fc fe ff ff ff 	movl   $0xfffffffe,-0x4(%ebp)
  4025e8:	89 45 f8             	mov    %eax,-0x8(%ebp)
  4025eb:	8d 45 f0             	lea    -0x10(%ebp),%eax
  4025ee:	64 a3 00 00 00 00    	mov    %eax,%fs:0x0
  4025f4:	f2 c3                	bnd ret
  4025f6:	8b 4d f0             	mov    -0x10(%ebp),%ecx
  4025f9:	64 89 0d 00 00 00 00 	mov    %ecx,%fs:0x0
  402600:	59                   	pop    %ecx
  402601:	5f                   	pop    %edi
  402602:	5f                   	pop    %edi
  402603:	5e                   	pop    %esi
  402604:	5b                   	pop    %ebx
  402605:	8b e5                	mov    %ebp,%esp
  402607:	5d                   	pop    %ebp
  402608:	51                   	push   %ecx
  402609:	f2 c3                	bnd ret
  40260b:	55                   	push   %ebp
  40260c:	8b ec                	mov    %esp,%ebp
  40260e:	83 25 2c 0c 42 00 00 	andl   $0x0,0x420c2c
  402615:	83 ec 28             	sub    $0x28,%esp
  402618:	53                   	push   %ebx
  402619:	33 db                	xor    %ebx,%ebx
  40261b:	43                   	inc    %ebx
  40261c:	09 1d 10 00 42 00    	or     %ebx,0x420010
  402622:	6a 0a                	push   $0xa
  402624:	e8 db 35 01 00       	call   0x415c04
  402629:	85 c0                	test   %eax,%eax
  40262b:	0f 84 6d 01 00 00    	je     0x40279e
  402631:	83 65 f0 00          	andl   $0x0,-0x10(%ebp)
  402635:	33 c0                	xor    %eax,%eax
  402637:	83 0d 10 00 42 00 02 	orl    $0x2,0x420010
  40263e:	33 c9                	xor    %ecx,%ecx
  402640:	56                   	push   %esi
  402641:	57                   	push   %edi
  402642:	89 1d 2c 0c 42 00    	mov    %ebx,0x420c2c
  402648:	8d 7d d8             	lea    -0x28(%ebp),%edi
  40264b:	53                   	push   %ebx
  40264c:	0f a2                	cpuid
  40264e:	8b f3                	mov    %ebx,%esi
  402650:	5b                   	pop    %ebx
  402651:	89 07                	mov    %eax,(%edi)
  402653:	89 77 04             	mov    %esi,0x4(%edi)
  402656:	89 4f 08             	mov    %ecx,0x8(%edi)
  402659:	89 57 0c             	mov    %edx,0xc(%edi)
  40265c:	8b 45 d8             	mov    -0x28(%ebp),%eax
  40265f:	8b 4d e4             	mov    -0x1c(%ebp),%ecx
  402662:	89 45 f8             	mov    %eax,-0x8(%ebp)
  402665:	81 f1 69 6e 65 49    	xor    $0x49656e69,%ecx
  40266b:	8b 45 e0             	mov    -0x20(%ebp),%eax
  40266e:	35 6e 74 65 6c       	xor    $0x6c65746e,%eax
  402673:	0b c8                	or     %eax,%ecx
  402675:	8b 45 dc             	mov    -0x24(%ebp),%eax
  402678:	6a 01                	push   $0x1
  40267a:	35 47 65 6e 75       	xor    $0x756e6547,%eax
  40267f:	0b c8                	or     %eax,%ecx
  402681:	58                   	pop    %eax
  402682:	6a 00                	push   $0x0
  402684:	59                   	pop    %ecx
  402685:	53                   	push   %ebx
  402686:	0f a2                	cpuid
  402688:	8b f3                	mov    %ebx,%esi
  40268a:	5b                   	pop    %ebx
  40268b:	89 07                	mov    %eax,(%edi)
  40268d:	89 77 04             	mov    %esi,0x4(%edi)
  402690:	89 4f 08             	mov    %ecx,0x8(%edi)
  402693:	89 57 0c             	mov    %edx,0xc(%edi)
  402696:	75 43                	jne    0x4026db
  402698:	8b 45 d8             	mov    -0x28(%ebp),%eax
  40269b:	25 f0 3f ff 0f       	and    $0xfff3ff0,%eax
  4026a0:	3d c0 06 01 00       	cmp    $0x106c0,%eax
  4026a5:	74 23                	je     0x4026ca
  4026a7:	3d 60 06 02 00       	cmp    $0x20660,%eax
  4026ac:	74 1c                	je     0x4026ca
  4026ae:	3d 70 06 02 00       	cmp    $0x20670,%eax
  4026b3:	74 15                	je     0x4026ca
  4026b5:	3d 50 06 03 00       	cmp    $0x30650,%eax
  4026ba:	74 0e                	je     0x4026ca
  4026bc:	3d 60 06 03 00       	cmp    $0x30660,%eax
  4026c1:	74 07                	je     0x4026ca
  4026c3:	3d 70 06 03 00       	cmp    $0x30670,%eax
  4026c8:	75 11                	jne    0x4026db
  4026ca:	8b 3d 30 0c 42 00    	mov    0x420c30,%edi
  4026d0:	83 cf 01             	or     $0x1,%edi
  4026d3:	89 3d 30 0c 42 00    	mov    %edi,0x420c30
  4026d9:	eb 06                	jmp    0x4026e1
  4026db:	8b 3d 30 0c 42 00    	mov    0x420c30,%edi
  4026e1:	83 7d f8 07          	cmpl   $0x7,-0x8(%ebp)
  4026e5:	8b 45 e4             	mov    -0x1c(%ebp),%eax
  4026e8:	89 45 e8             	mov    %eax,-0x18(%ebp)
  4026eb:	8b 45 e0             	mov    -0x20(%ebp),%eax
  4026ee:	89 45 fc             	mov    %eax,-0x4(%ebp)
  4026f1:	89 45 ec             	mov    %eax,-0x14(%ebp)
  4026f4:	7c 32                	jl     0x402728
  4026f6:	6a 07                	push   $0x7
  4026f8:	58                   	pop    %eax
  4026f9:	33 c9                	xor    %ecx,%ecx
  4026fb:	53                   	push   %ebx
  4026fc:	0f a2                	cpuid
  4026fe:	8b f3                	mov    %ebx,%esi
  402700:	5b                   	pop    %ebx
  402701:	8d 5d d8             	lea    -0x28(%ebp),%ebx
  402704:	89 03                	mov    %eax,(%ebx)
  402706:	89 73 04             	mov    %esi,0x4(%ebx)
  402709:	89 4b 08             	mov    %ecx,0x8(%ebx)
  40270c:	89 53 0c             	mov    %edx,0xc(%ebx)
  40270f:	8b 45 dc             	mov    -0x24(%ebp),%eax
  402712:	a9 00 02 00 00       	test   $0x200,%eax
  402717:	89 45 f0             	mov    %eax,-0x10(%ebp)
  40271a:	8b 45 fc             	mov    -0x4(%ebp),%eax
  40271d:	74 09                	je     0x402728
  40271f:	83 cf 02             	or     $0x2,%edi
  402722:	89 3d 30 0c 42 00    	mov    %edi,0x420c30
  402728:	5f                   	pop    %edi
  402729:	5e                   	pop    %esi
  40272a:	a9 00 00 10 00       	test   $0x100000,%eax
  40272f:	74 6d                	je     0x40279e
  402731:	83 0d 10 00 42 00 04 	orl    $0x4,0x420010
  402738:	c7 05 2c 0c 42 00 02 	movl   $0x2,0x420c2c
  40273f:	00 00 00 
  402742:	a9 00 00 00 08       	test   $0x8000000,%eax
  402747:	74 55                	je     0x40279e
  402749:	a9 00 00 00 10       	test   $0x10000000,%eax
  40274e:	74 4e                	je     0x40279e
  402750:	33 c9                	xor    %ecx,%ecx
  402752:	0f 01 d0             	xgetbv
  402755:	89 45 f4             	mov    %eax,-0xc(%ebp)
  402758:	89 55 f8             	mov    %edx,-0x8(%ebp)
  40275b:	8b 45 f4             	mov    -0xc(%ebp),%eax
  40275e:	8b 4d f8             	mov    -0x8(%ebp),%ecx
  402761:	83 e0 06             	and    $0x6,%eax
  402764:	33 c9                	xor    %ecx,%ecx
  402766:	83 f8 06             	cmp    $0x6,%eax
  402769:	75 33                	jne    0x40279e
  40276b:	85 c9                	test   %ecx,%ecx
  40276d:	75 2f                	jne    0x40279e
  40276f:	a1 10 00 42 00       	mov    0x420010,%eax
  402774:	83 c8 08             	or     $0x8,%eax
  402777:	c7 05 2c 0c 42 00 03 	movl   $0x3,0x420c2c
  40277e:	00 00 00 
  402781:	f6 45 f0 20          	testb  $0x20,-0x10(%ebp)
  402785:	a3 10 00 42 00       	mov    %eax,0x420010
  40278a:	74 12                	je     0x40279e
  40278c:	83 c8 20             	or     $0x20,%eax
  40278f:	c7 05 2c 0c 42 00 05 	movl   $0x5,0x420c2c
  402796:	00 00 00 
  402799:	a3 10 00 42 00       	mov    %eax,0x420010
  40279e:	33 c0                	xor    %eax,%eax
  4027a0:	5b                   	pop    %ebx
  4027a1:	8b e5                	mov    %ebp,%esp
  4027a3:	5d                   	pop    %ebp
  4027a4:	c3                   	ret
  4027a5:	33 c0                	xor    %eax,%eax
  4027a7:	39 05 f4 12 42 00    	cmp    %eax,0x4212f4
  4027ad:	0f 95 c0             	setne  %al
  4027b0:	c3                   	ret
  4027b1:	c3                   	ret
  4027b2:	cc                   	int3
  4027b3:	cc                   	int3
  4027b4:	cc                   	int3
  4027b5:	cc                   	int3
  4027b6:	cc                   	int3
  4027b7:	cc                   	int3
  4027b8:	cc                   	int3
  4027b9:	cc                   	int3
  4027ba:	cc                   	int3
  4027bb:	cc                   	int3
  4027bc:	cc                   	int3
  4027bd:	cc                   	int3
  4027be:	cc                   	int3
  4027bf:	cc                   	int3
  4027c0:	8b 4c 24 08          	mov    0x8(%esp),%ecx
  4027c4:	8b 44 24 04          	mov    0x4(%esp),%eax
  4027c8:	57                   	push   %edi
  4027c9:	53                   	push   %ebx
  4027ca:	56                   	push   %esi
  4027cb:	83 3d 2c 0c 42 00 01 	cmpl   $0x1,0x420c2c
  4027d2:	0f 82 ce 01 00 00    	jb     0x4029a6
  4027d8:	0f 87 fd 00 00 00    	ja     0x4028db
  4027de:	0f b6 11             	movzbl (%ecx),%edx
  4027e1:	8b da                	mov    %edx,%ebx
  4027e3:	c1 e2 08             	shl    $0x8,%edx
  4027e6:	0b d3                	or     %ebx,%edx
  4027e8:	0f 84 e9 00 00 00    	je     0x4028d7
  4027ee:	66 0f 6e da          	movd   %edx,%xmm3
  4027f2:	f2 0f 70 db 00       	pshuflw $0x0,%xmm3,%xmm3
  4027f7:	0f 16 db             	movlhps %xmm3,%xmm3
  4027fa:	66 0f ef c0          	pxor   %xmm0,%xmm0
  4027fe:	8b f1                	mov    %ecx,%esi
  402800:	83 cf ff             	or     $0xffffffff,%edi
  402803:	0f b6 19             	movzbl (%ecx),%ebx
  402806:	83 c1 01             	add    $0x1,%ecx
  402809:	85 db                	test   %ebx,%ebx
  40280b:	74 1d                	je     0x40282a
  40280d:	f7 c1 0f 00 00 00    	test   $0xf,%ecx
  402813:	75 ee                	jne    0x402803
  402815:	66 0f 6f 11          	movdqa (%ecx),%xmm2
  402819:	66 0f 74 d0          	pcmpeqb %xmm0,%xmm2
  40281d:	66 0f d7 da          	pmovmskb %xmm2,%ebx
  402821:	85 db                	test   %ebx,%ebx
  402823:	75 05                	jne    0x40282a
  402825:	bf 0f 00 00 00       	mov    $0xf,%edi
  40282a:	66 0f 7e da          	movd   %xmm3,%edx
  40282e:	bb ff 0f 00 00       	mov    $0xfff,%ebx
  402833:	23 d8                	and    %eax,%ebx
  402835:	81 fb f0 0f 00 00    	cmp    $0xff0,%ebx
  40283b:	77 27                	ja     0x402864
  40283d:	f3 0f 6f 08          	movdqu (%eax),%xmm1
  402841:	66 0f ef d2          	pxor   %xmm2,%xmm2
  402845:	66 0f 74 d1          	pcmpeqb %xmm1,%xmm2
  402849:	66 0f 74 cb          	pcmpeqb %xmm3,%xmm1
  40284d:	66 0f eb ca          	por    %xmm2,%xmm1
  402851:	66 0f d7 d9          	pmovmskb %xmm1,%ebx
  402855:	83 c0 10             	add    $0x10,%eax
  402858:	85 db                	test   %ebx,%ebx
  40285a:	74 d2                	je     0x40282e
  40285c:	0f bc db             	bsf    %ebx,%ebx
  40285f:	83 e8 10             	sub    $0x10,%eax
  402862:	03 c3                	add    %ebx,%eax
  402864:	0f b6 18             	movzbl (%eax),%ebx
  402867:	85 db                	test   %ebx,%ebx
  402869:	74 6a                	je     0x4028d5
  40286b:	83 c0 01             	add    $0x1,%eax
  40286e:	3a d3                	cmp    %bl,%dl
  402870:	75 bc                	jne    0x40282e
  402872:	8b d0                	mov    %eax,%edx
  402874:	8d 4e 01             	lea    0x1(%esi),%ecx
  402877:	bb ff 0f 00 00       	mov    $0xfff,%ebx
  40287c:	85 cf                	test   %ecx,%edi
  40287e:	75 39                	jne    0x4028b9
  402880:	23 da                	and    %edx,%ebx
  402882:	81 fb f0 0f 00 00    	cmp    $0xff0,%ebx
  402888:	77 2f                	ja     0x4028b9
  40288a:	f3 0f 6f 0a          	movdqu (%edx),%xmm1
  40288e:	66 0f 6f 11          	movdqa (%ecx),%xmm2
  402892:	66 0f 74 ca          	pcmpeqb %xmm2,%xmm1
  402896:	66 0f 74 d0          	pcmpeqb %xmm0,%xmm2
  40289a:	66 0f 74 c8          	pcmpeqb %xmm0,%xmm1
  40289e:	66 0f eb d1          	por    %xmm1,%xmm2
  4028a2:	66 0f d7 da          	pmovmskb %xmm2,%ebx
  4028a6:	85 db                	test   %ebx,%ebx
  4028a8:	75 08                	jne    0x4028b2
  4028aa:	83 c2 10             	add    $0x10,%edx
  4028ad:	83 c1 10             	add    $0x10,%ecx
  4028b0:	eb c5                	jmp    0x402877
  4028b2:	0f bc db             	bsf    %ebx,%ebx
  4028b5:	03 d3                	add    %ebx,%edx
  4028b7:	03 cb                	add    %ebx,%ecx
  4028b9:	0f b6 19             	movzbl (%ecx),%ebx
  4028bc:	85 db                	test   %ebx,%ebx
  4028be:	74 10                	je     0x4028d0
  4028c0:	3a 1a                	cmp    (%edx),%bl
  4028c2:	0f 85 62 ff ff ff    	jne    0x40282a
  4028c8:	83 c2 01             	add    $0x1,%edx
  4028cb:	83 c1 01             	add    $0x1,%ecx
  4028ce:	eb a7                	jmp    0x402877
  4028d0:	48                   	dec    %eax
  4028d1:	5e                   	pop    %esi
  4028d2:	5b                   	pop    %ebx
  4028d3:	5f                   	pop    %edi
  4028d4:	c3                   	ret
  4028d5:	33 c0                	xor    %eax,%eax
  4028d7:	5e                   	pop    %esi
  4028d8:	5b                   	pop    %ebx
  4028d9:	5f                   	pop    %edi
  4028da:	c3                   	ret
  4028db:	80 39 00             	cmpb   $0x0,(%ecx)
  4028de:	74 f7                	je     0x4028d7
  4028e0:	8b f9                	mov    %ecx,%edi
  4028e2:	bb ff 0f 00 00       	mov    $0xfff,%ebx
  4028e7:	23 d9                	and    %ecx,%ebx
  4028e9:	81 fb f0 0f 00 00    	cmp    $0xff0,%ebx
  4028ef:	77 06                	ja     0x4028f7
  4028f1:	f3 0f 6f 01          	movdqu (%ecx),%xmm0
  4028f5:	eb 22                	jmp    0x402919
  4028f7:	bb 0f 00 00 00       	mov    $0xf,%ebx
  4028fc:	0f b6 31             	movzbl (%ecx),%esi
  4028ff:	83 c1 01             	add    $0x1,%ecx
  402902:	66 0f 3a 20 c6 0f    	pinsrb $0xf,%esi,%xmm0
  402908:	66 0f 73 d8 01       	psrldq $0x1,%xmm0
  40290d:	4b                   	dec    %ebx
  40290e:	74 09                	je     0x402919
  402910:	85 f6                	test   %esi,%esi
  402912:	74 ee                	je     0x402902
  402914:	eb e6                	jmp    0x4028fc
  402916:	83 c0 01             	add    $0x1,%eax
  402919:	66 0f 7e c2          	movd   %xmm0,%edx
  40291d:	bb ff 0f 00 00       	mov    $0xfff,%ebx
  402922:	23 d8                	and    %eax,%ebx
  402924:	81 fb f0 0f 00 00    	cmp    $0xff0,%ebx
  40292a:	76 10                	jbe    0x40293c
  40292c:	0f b6 18             	movzbl (%eax),%ebx
  40292f:	85 db                	test   %ebx,%ebx
  402931:	74 a2                	je     0x4028d5
  402933:	3a d3                	cmp    %bl,%dl
  402935:	74 18                	je     0x40294f
  402937:	83 c0 01             	add    $0x1,%eax
  40293a:	eb e1                	jmp    0x40291d
  40293c:	83 c0 10             	add    $0x10,%eax
  40293f:	66 0f 3a 63 40 f0 0c 	pcmpistri $0xc,-0x10(%eax),%xmm0
  402946:	77 d5                	ja     0x40291d
  402948:	73 8b                	jae    0x4028d5
  40294a:	83 e8 10             	sub    $0x10,%eax
  40294d:	03 c1                	add    %ecx,%eax
  40294f:	8b d7                	mov    %edi,%edx
  402951:	8b f0                	mov    %eax,%esi
  402953:	bb ff 0f 00 00       	mov    $0xfff,%ebx
  402958:	23 de                	and    %esi,%ebx
  40295a:	81 fb f0 0f 00 00    	cmp    $0xff0,%ebx
  402960:	77 29                	ja     0x40298b
  402962:	bb ff 0f 00 00       	mov    $0xfff,%ebx
  402967:	23 da                	and    %edx,%ebx
  402969:	81 fb f0 0f 00 00    	cmp    $0xff0,%ebx
  40296f:	77 1a                	ja     0x40298b
  402971:	f3 0f 6f 0a          	movdqu (%edx),%xmm1
  402975:	83 c6 10             	add    $0x10,%esi
  402978:	83 c2 10             	add    $0x10,%edx
  40297b:	66 0f 3a 63 4e f0 0c 	pcmpistri $0xc,-0x10(%esi),%xmm1
  402982:	71 92                	jno    0x402916
  402984:	79 cd                	jns    0x402953
  402986:	e9 4c ff ff ff       	jmp    0x4028d7
  40298b:	0f b6 1a             	movzbl (%edx),%ebx
  40298e:	85 db                	test   %ebx,%ebx
  402990:	0f 84 41 ff ff ff    	je     0x4028d7
  402996:	3a 1e                	cmp    (%esi),%bl
  402998:	0f 85 78 ff ff ff    	jne    0x402916
  40299e:	83 c6 01             	add    $0x1,%esi
  4029a1:	83 c2 01             	add    $0x1,%edx
  4029a4:	eb ad                	jmp    0x402953
  4029a6:	8a 11                	mov    (%ecx),%dl
  4029a8:	8b f8                	mov    %eax,%edi
  4029aa:	84 d2                	test   %dl,%dl
  4029ac:	74 6f                	je     0x402a1d
  4029ae:	8a 71 01             	mov    0x1(%ecx),%dh
  4029b1:	84 f6                	test   %dh,%dh
  4029b3:	74 55                	je     0x402a0a
  4029b5:	8b f7                	mov    %edi,%esi
  4029b7:	8b 4c 24 14          	mov    0x14(%esp),%ecx
  4029bb:	8a 07                	mov    (%edi),%al
  4029bd:	83 c6 01             	add    $0x1,%esi
  4029c0:	3a c2                	cmp    %dl,%al
  4029c2:	74 17                	je     0x4029db
  4029c4:	84 c0                	test   %al,%al
  4029c6:	74 0d                	je     0x4029d5
  4029c8:	8a 06                	mov    (%esi),%al
  4029ca:	83 c6 01             	add    $0x1,%esi
  4029cd:	3a c2                	cmp    %dl,%al
  4029cf:	74 0a                	je     0x4029db
  4029d1:	84 c0                	test   %al,%al
  4029d3:	75 f3                	jne    0x4029c8
  4029d5:	5e                   	pop    %esi
  4029d6:	5b                   	pop    %ebx
  4029d7:	5f                   	pop    %edi
  4029d8:	33 c0                	xor    %eax,%eax
  4029da:	c3                   	ret
  4029db:	8a 06                	mov    (%esi),%al
  4029dd:	83 c6 01             	add    $0x1,%esi
  4029e0:	3a c6                	cmp    %dh,%al
  4029e2:	75 e9                	jne    0x4029cd
  4029e4:	8d 7e ff             	lea    -0x1(%esi),%edi
  4029e7:	8a 61 02             	mov    0x2(%ecx),%ah
  4029ea:	84 e4                	test   %ah,%ah
  4029ec:	74 28                	je     0x402a16
  4029ee:	8a 06                	mov    (%esi),%al
  4029f0:	83 c6 02             	add    $0x2,%esi
  4029f3:	3a c4                	cmp    %ah,%al
  4029f5:	75 be                	jne    0x4029b5
  4029f7:	8a 41 03             	mov    0x3(%ecx),%al
  4029fa:	84 c0                	test   %al,%al
  4029fc:	74 18                	je     0x402a16
  4029fe:	8a 66 ff             	mov    -0x1(%esi),%ah
  402a01:	83 c1 02             	add    $0x2,%ecx
  402a04:	3a c4                	cmp    %ah,%al
  402a06:	74 df                	je     0x4029e7
  402a08:	eb ab                	jmp    0x4029b5
  402a0a:	33 c0                	xor    %eax,%eax
  402a0c:	5e                   	pop    %esi
  402a0d:	5b                   	pop    %ebx
  402a0e:	5f                   	pop    %edi
  402a0f:	8a c2                	mov    %dl,%al
  402a11:	e9 d8 03 00 00       	jmp    0x402dee
  402a16:	8d 47 ff             	lea    -0x1(%edi),%eax
  402a19:	5e                   	pop    %esi
  402a1a:	5b                   	pop    %ebx
  402a1b:	5f                   	pop    %edi
  402a1c:	c3                   	ret
  402a1d:	8b c7                	mov    %edi,%eax
  402a1f:	5e                   	pop    %esi
  402a20:	5b                   	pop    %ebx
  402a21:	5f                   	pop    %edi
  402a22:	c3                   	ret
  402a23:	cc                   	int3
  402a24:	cc                   	int3
  402a25:	cc                   	int3
  402a26:	cc                   	int3
  402a27:	cc                   	int3
  402a28:	cc                   	int3
  402a29:	cc                   	int3
  402a2a:	cc                   	int3
  402a2b:	cc                   	int3
  402a2c:	cc                   	int3
  402a2d:	cc                   	int3
  402a2e:	cc                   	int3
  402a2f:	cc                   	int3
  402a30:	55                   	push   %ebp
  402a31:	8b ec                	mov    %esp,%ebp
  402a33:	56                   	push   %esi
  402a34:	8b 75 08             	mov    0x8(%ebp),%esi
  402a37:	57                   	push   %edi
  402a38:	8b 7d 0c             	mov    0xc(%ebp),%edi
  402a3b:	8b 06                	mov    (%esi),%eax
  402a3d:	83 f8 fe             	cmp    $0xfffffffe,%eax
  402a40:	74 0d                	je     0x402a4f
  402a42:	8b 4e 04             	mov    0x4(%esi),%ecx
  402a45:	03 cf                	add    %edi,%ecx
  402a47:	33 0c 38             	xor    (%eax,%edi,1),%ecx
  402a4a:	e8 75 f1 ff ff       	call   0x401bc4
  402a4f:	8b 46 08             	mov    0x8(%esi),%eax
  402a52:	8b 4e 0c             	mov    0xc(%esi),%ecx
  402a55:	03 cf                	add    %edi,%ecx
  402a57:	33 0c 38             	xor    (%eax,%edi,1),%ecx
  402a5a:	5f                   	pop    %edi
  402a5b:	5e                   	pop    %esi
  402a5c:	5d                   	pop    %ebp
  402a5d:	e9 62 f1 ff ff       	jmp    0x401bc4
  402a62:	cc                   	int3
  402a63:	cc                   	int3
  402a64:	cc                   	int3
  402a65:	cc                   	int3
  402a66:	cc                   	int3
  402a67:	cc                   	int3
  402a68:	cc                   	int3
  402a69:	cc                   	int3
  402a6a:	cc                   	int3
  402a6b:	cc                   	int3
  402a6c:	cc                   	int3
  402a6d:	cc                   	int3
  402a6e:	cc                   	int3
  402a6f:	cc                   	int3
  402a70:	55                   	push   %ebp
  402a71:	8b ec                	mov    %esp,%ebp
  402a73:	83 ec 1c             	sub    $0x1c,%esp
  402a76:	53                   	push   %ebx
  402a77:	56                   	push   %esi
  402a78:	8b 75 0c             	mov    0xc(%ebp),%esi
  402a7b:	57                   	push   %edi
  402a7c:	c6 45 ff 00          	movb   $0x0,-0x1(%ebp)
  402a80:	c7 45 f4 01 00 00 00 	movl   $0x1,-0xc(%ebp)
  402a87:	8b 5e 08             	mov    0x8(%esi),%ebx
  402a8a:	8d 46 10             	lea    0x10(%esi),%eax
  402a8d:	33 1d 04 00 42 00    	xor    0x420004,%ebx
  402a93:	50                   	push   %eax
  402a94:	53                   	push   %ebx
  402a95:	89 45 ec             	mov    %eax,-0x14(%ebp)
  402a98:	89 5d f8             	mov    %ebx,-0x8(%ebp)
  402a9b:	e8 90 ff ff ff       	call   0x402a30
  402aa0:	8b 7d 10             	mov    0x10(%ebp),%edi
  402aa3:	57                   	push   %edi
  402aa4:	e8 08 fd ff ff       	call   0x4027b1
  402aa9:	8b 45 08             	mov    0x8(%ebp),%eax
  402aac:	83 c4 0c             	add    $0xc,%esp
  402aaf:	f6 40 04 66          	testb  $0x66,0x4(%eax)
  402ab3:	0f 85 ba 00 00 00    	jne    0x402b73
  402ab9:	89 45 e4             	mov    %eax,-0x1c(%ebp)
  402abc:	8d 45 e4             	lea    -0x1c(%ebp),%eax
  402abf:	89 7d e8             	mov    %edi,-0x18(%ebp)
  402ac2:	8b 7e 0c             	mov    0xc(%esi),%edi
  402ac5:	89 46 fc             	mov    %eax,-0x4(%esi)
  402ac8:	83 ff fe             	cmp    $0xfffffffe,%edi
  402acb:	0f 84 c9 00 00 00    	je     0x402b9a
  402ad1:	8d 47 02             	lea    0x2(%edi),%eax
  402ad4:	8d 04 47             	lea    (%edi,%eax,2),%eax
  402ad7:	8b 4c 83 04          	mov    0x4(%ebx,%eax,4),%ecx
  402adb:	8d 04 83             	lea    (%ebx,%eax,4),%eax
  402ade:	8b 18                	mov    (%eax),%ebx
  402ae0:	89 45 f0             	mov    %eax,-0x10(%ebp)
  402ae3:	85 c9                	test   %ecx,%ecx
  402ae5:	74 65                	je     0x402b4c
  402ae7:	8d 56 10             	lea    0x10(%esi),%edx
  402aea:	e8 bf 04 00 00       	call   0x402fae
  402aef:	b1 01                	mov    $0x1,%cl
  402af1:	88 4d ff             	mov    %cl,-0x1(%ebp)
  402af4:	85 c0                	test   %eax,%eax
  402af6:	78 66                	js     0x402b5e
  402af8:	7e 55                	jle    0x402b4f
  402afa:	8b 45 08             	mov    0x8(%ebp),%eax
  402afd:	81 38 63 73 6d e0    	cmpl   $0xe06d7363,(%eax)
  402b03:	75 37                	jne    0x402b3c
  402b05:	83 3d 00 13 42 00 00 	cmpl   $0x0,0x421300
  402b0c:	74 2e                	je     0x402b3c
  402b0e:	68 00 13 42 00       	push   $0x421300
  402b13:	e8 48 31 01 00       	call   0x415c60
  402b18:	83 c4 04             	add    $0x4,%esp
  402b1b:	85 c0                	test   %eax,%eax
  402b1d:	74 1a                	je     0x402b39
  402b1f:	8b 35 00 13 42 00    	mov    0x421300,%esi
  402b25:	8b ce                	mov    %esi,%ecx
  402b27:	6a 01                	push   $0x1
  402b29:	ff 75 08             	push   0x8(%ebp)
  402b2c:	e8 74 fa ff ff       	call   0x4025a5
  402b31:	ff d6                	call   *%esi
  402b33:	8b 75 0c             	mov    0xc(%ebp),%esi
  402b36:	83 c4 08             	add    $0x8,%esp
  402b39:	8b 45 08             	mov    0x8(%ebp),%eax
  402b3c:	8b d0                	mov    %eax,%edx
  402b3e:	8b ce                	mov    %esi,%ecx
  402b40:	e8 99 04 00 00       	call   0x402fde
  402b45:	39 7e 0c             	cmp    %edi,0xc(%esi)
  402b48:	74 6c                	je     0x402bb6
  402b4a:	eb 58                	jmp    0x402ba4
  402b4c:	8a 4d ff             	mov    -0x1(%ebp),%cl
  402b4f:	8b fb                	mov    %ebx,%edi
  402b51:	83 fb fe             	cmp    $0xfffffffe,%ebx
  402b54:	74 14                	je     0x402b6a
  402b56:	8b 5d f8             	mov    -0x8(%ebp),%ebx
  402b59:	e9 73 ff ff ff       	jmp    0x402ad1
  402b5e:	8b 5d f8             	mov    -0x8(%ebp),%ebx
  402b61:	c7 45 f4 00 00 00 00 	movl   $0x0,-0xc(%ebp)
  402b68:	eb 24                	jmp    0x402b8e
  402b6a:	84 c9                	test   %cl,%cl
  402b6c:	74 2c                	je     0x402b9a
  402b6e:	8b 5d f8             	mov    -0x8(%ebp),%ebx
  402b71:	eb 1b                	jmp    0x402b8e
  402b73:	83 7e 0c fe          	cmpl   $0xfffffffe,0xc(%esi)
  402b77:	74 21                	je     0x402b9a
  402b79:	68 04 00 42 00       	push   $0x420004
  402b7e:	8d 46 10             	lea    0x10(%esi),%eax
  402b81:	ba fe ff ff ff       	mov    $0xfffffffe,%edx
  402b86:	50                   	push   %eax
  402b87:	8b ce                	mov    %esi,%ecx
  402b89:	e8 69 04 00 00       	call   0x402ff7
  402b8e:	ff 75 ec             	push   -0x14(%ebp)
  402b91:	53                   	push   %ebx
  402b92:	e8 99 fe ff ff       	call   0x402a30
  402b97:	83 c4 08             	add    $0x8,%esp
  402b9a:	8b 45 f4             	mov    -0xc(%ebp),%eax
  402b9d:	5f                   	pop    %edi
  402b9e:	5e                   	pop    %esi
  402b9f:	5b                   	pop    %ebx
  402ba0:	8b e5                	mov    %ebp,%esp
  402ba2:	5d                   	pop    %ebp
  402ba3:	c3                   	ret
  402ba4:	68 04 00 42 00       	push   $0x420004
  402ba9:	8d 46 10             	lea    0x10(%esi),%eax
  402bac:	8b d7                	mov    %edi,%edx
  402bae:	50                   	push   %eax
  402baf:	8b ce                	mov    %esi,%ecx
  402bb1:	e8 41 04 00 00       	call   0x402ff7
  402bb6:	89 5e 0c             	mov    %ebx,0xc(%esi)
  402bb9:	8d 5e 10             	lea    0x10(%esi),%ebx
  402bbc:	53                   	push   %ebx
  402bbd:	ff 75 f8             	push   -0x8(%ebp)
  402bc0:	e8 6b fe ff ff       	call   0x402a30
  402bc5:	8b 4d f0             	mov    -0x10(%ebp),%ecx
  402bc8:	83 c4 08             	add    $0x8,%esp
  402bcb:	8b d3                	mov    %ebx,%edx
  402bcd:	8b 49 08             	mov    0x8(%ecx),%ecx
  402bd0:	e8 f0 03 00 00       	call   0x402fc5
  402bd5:	cc                   	int3
  402bd6:	e8 8c 07 00 00       	call   0x403367
  402bdb:	e8 1b 07 00 00       	call   0x4032fb
  402be0:	e8 93 04 00 00       	call   0x403078
  402be5:	84 c0                	test   %al,%al
  402be7:	75 03                	jne    0x402bec
  402be9:	32 c0                	xor    %al,%al
  402beb:	c3                   	ret
  402bec:	e8 39 04 00 00       	call   0x40302a
  402bf1:	84 c0                	test   %al,%al
  402bf3:	75 07                	jne    0x402bfc
  402bf5:	e8 ba 04 00 00       	call   0x4030b4
  402bfa:	eb ed                	jmp    0x402be9
  402bfc:	b0 01                	mov    $0x1,%al
  402bfe:	c3                   	ret
  402bff:	55                   	push   %ebp
  402c00:	8b ec                	mov    %esp,%ebp
  402c02:	80 7d 08 00          	cmpb   $0x0,0x8(%ebp)
  402c06:	75 12                	jne    0x402c1a
  402c08:	e8 50 04 00 00       	call   0x40305d
  402c0d:	e8 a2 04 00 00       	call   0x4030b4
  402c12:	6a 00                	push   $0x0
  402c14:	e8 1c 07 00 00       	call   0x403335
  402c19:	59                   	pop    %ecx
  402c1a:	b0 01                	mov    $0x1,%al
  402c1c:	5d                   	pop    %ebp
  402c1d:	c3                   	ret
  402c1e:	cc                   	int3
  402c1f:	cc                   	int3
  402c20:	8b 4c 24 0c          	mov    0xc(%esp),%ecx
  402c24:	0f b6 44 24 08       	movzbl 0x8(%esp),%eax
  402c29:	8b d7                	mov    %edi,%edx
  402c2b:	8b 7c 24 04          	mov    0x4(%esp),%edi
  402c2f:	85 c9                	test   %ecx,%ecx
  402c31:	0f 84 3c 01 00 00    	je     0x402d73
  402c37:	69 c0 01 01 01 01    	imul   $0x1010101,%eax,%eax
  402c3d:	83 f9 20             	cmp    $0x20,%ecx
  402c40:	0f 8e df 00 00 00    	jle    0x402d25
  402c46:	81 f9 80 00 00 00    	cmp    $0x80,%ecx
  402c4c:	0f 8c 8b 00 00 00    	jl     0x402cdd
  402c52:	0f ba 25 30 0c 42 00 	btl    $0x1,0x420c30
  402c59:	01 
  402c5a:	73 09                	jae    0x402c65
  402c5c:	f3 aa                	rep stos %al,%es:(%edi)
  402c5e:	8b 44 24 04          	mov    0x4(%esp),%eax
  402c62:	8b fa                	mov    %edx,%edi
  402c64:	c3                   	ret
  402c65:	0f ba 25 10 00 42 00 	btl    $0x1,0x420010
  402c6c:	01 
  402c6d:	0f 83 b2 00 00 00    	jae    0x402d25
  402c73:	66 0f 6e c0          	movd   %eax,%xmm0
  402c77:	66 0f 70 c0 00       	pshufd $0x0,%xmm0,%xmm0
  402c7c:	03 cf                	add    %edi,%ecx
  402c7e:	0f 11 07             	movups %xmm0,(%edi)
  402c81:	83 c7 10             	add    $0x10,%edi
  402c84:	83 e7 f0             	and    $0xfffffff0,%edi
  402c87:	2b cf                	sub    %edi,%ecx
  402c89:	81 f9 80 00 00 00    	cmp    $0x80,%ecx
  402c8f:	7e 4c                	jle    0x402cdd
  402c91:	8d a4 24 00 00 00 00 	lea    0x0(%esp),%esp
  402c98:	8d a4 24 00 00 00 00 	lea    0x0(%esp),%esp
  402c9f:	90                   	nop
  402ca0:	66 0f 7f 07          	movdqa %xmm0,(%edi)
  402ca4:	66 0f 7f 47 10       	movdqa %xmm0,0x10(%edi)
  402ca9:	66 0f 7f 47 20       	movdqa %xmm0,0x20(%edi)
  402cae:	66 0f 7f 47 30       	movdqa %xmm0,0x30(%edi)
  402cb3:	66 0f 7f 47 40       	movdqa %xmm0,0x40(%edi)
  402cb8:	66 0f 7f 47 50       	movdqa %xmm0,0x50(%edi)
  402cbd:	66 0f 7f 47 60       	movdqa %xmm0,0x60(%edi)
  402cc2:	66 0f 7f 47 70       	movdqa %xmm0,0x70(%edi)
  402cc7:	8d bf 80 00 00 00    	lea    0x80(%edi),%edi
  402ccd:	81 e9 80 00 00 00    	sub    $0x80,%ecx
  402cd3:	f7 c1 00 ff ff ff    	test   $0xffffff00,%ecx
  402cd9:	75 c5                	jne    0x402ca0
  402cdb:	eb 13                	jmp    0x402cf0
  402cdd:	0f ba 25 10 00 42 00 	btl    $0x1,0x420010
  402ce4:	01 
  402ce5:	73 3e                	jae    0x402d25
  402ce7:	66 0f 6e c0          	movd   %eax,%xmm0
  402ceb:	66 0f 70 c0 00       	pshufd $0x0,%xmm0,%xmm0
  402cf0:	83 f9 20             	cmp    $0x20,%ecx
  402cf3:	72 1c                	jb     0x402d11
  402cf5:	f3 0f 7f 07          	movdqu %xmm0,(%edi)
  402cf9:	f3 0f 7f 47 10       	movdqu %xmm0,0x10(%edi)
  402cfe:	83 c7 20             	add    $0x20,%edi
  402d01:	83 e9 20             	sub    $0x20,%ecx
  402d04:	83 f9 20             	cmp    $0x20,%ecx
  402d07:	73 ec                	jae    0x402cf5
  402d09:	f7 c1 1f 00 00 00    	test   $0x1f,%ecx
  402d0f:	74 62                	je     0x402d73
  402d11:	8d 7c 39 e0          	lea    -0x20(%ecx,%edi,1),%edi
  402d15:	f3 0f 7f 07          	movdqu %xmm0,(%edi)
  402d19:	f3 0f 7f 47 10       	movdqu %xmm0,0x10(%edi)
  402d1e:	8b 44 24 04          	mov    0x4(%esp),%eax
  402d22:	8b fa                	mov    %edx,%edi
  402d24:	c3                   	ret
  402d25:	f7 c1 03 00 00 00    	test   $0x3,%ecx
  402d2b:	74 0e                	je     0x402d3b
  402d2d:	88 07                	mov    %al,(%edi)
  402d2f:	47                   	inc    %edi
  402d30:	83 e9 01             	sub    $0x1,%ecx
  402d33:	f7 c1 03 00 00 00    	test   $0x3,%ecx
  402d39:	75 f2                	jne    0x402d2d
  402d3b:	f7 c1 04 00 00 00    	test   $0x4,%ecx
  402d41:	74 08                	je     0x402d4b
  402d43:	89 07                	mov    %eax,(%edi)
  402d45:	83 c7 04             	add    $0x4,%edi
  402d48:	83 e9 04             	sub    $0x4,%ecx
  402d4b:	f7 c1 f8 ff ff ff    	test   $0xfffffff8,%ecx
  402d51:	74 20                	je     0x402d73
  402d53:	8d a4 24 00 00 00 00 	lea    0x0(%esp),%esp
  402d5a:	8d 9b 00 00 00 00    	lea    0x0(%ebx),%ebx
  402d60:	89 07                	mov    %eax,(%edi)
  402d62:	89 47 04             	mov    %eax,0x4(%edi)
  402d65:	83 c7 08             	add    $0x8,%edi
  402d68:	83 e9 08             	sub    $0x8,%ecx
  402d6b:	f7 c1 f8 ff ff ff    	test   $0xfffffff8,%ecx
  402d71:	75 ed                	jne    0x402d60
  402d73:	8b 44 24 04          	mov    0x4(%esp),%eax
  402d77:	8b fa                	mov    %edx,%edi
  402d79:	c3                   	ret
  402d7a:	cc                   	int3
  402d7b:	cc                   	int3
  402d7c:	cc                   	int3
  402d7d:	cc                   	int3
  402d7e:	cc                   	int3
  402d7f:	cc                   	int3
  402d80:	83 3d 2c 0c 42 00 01 	cmpl   $0x1,0x420c2c
  402d87:	72 5f                	jb     0x402de8
  402d89:	0f b6 44 24 08       	movzbl 0x8(%esp),%eax
  402d8e:	8b d0                	mov    %eax,%edx
  402d90:	c1 e0 08             	shl    $0x8,%eax
  402d93:	0b d0                	or     %eax,%edx
  402d95:	66 0f 6e da          	movd   %edx,%xmm3
  402d99:	f2 0f 70 db 00       	pshuflw $0x0,%xmm3,%xmm3
  402d9e:	0f 16 db             	movlhps %xmm3,%xmm3
  402da1:	8b 54 24 04          	mov    0x4(%esp),%edx
  402da5:	b9 0f 00 00 00       	mov    $0xf,%ecx
  402daa:	83 c8 ff             	or     $0xffffffff,%eax
  402dad:	23 ca                	and    %edx,%ecx
  402daf:	d3 e0                	shl    %cl,%eax
  402db1:	2b d1                	sub    %ecx,%edx
  402db3:	f3 0f 6f 0a          	movdqu (%edx),%xmm1
  402db7:	66 0f ef d2          	pxor   %xmm2,%xmm2
  402dbb:	66 0f 74 d1          	pcmpeqb %xmm1,%xmm2
  402dbf:	66 0f 74 cb          	pcmpeqb %xmm3,%xmm1
  402dc3:	66 0f eb d1          	por    %xmm1,%xmm2
  402dc7:	66 0f d7 ca          	pmovmskb %xmm2,%ecx
  402dcb:	23 c8                	and    %eax,%ecx
  402dcd:	75 08                	jne    0x402dd7
  402dcf:	83 c8 ff             	or     $0xffffffff,%eax
  402dd2:	83 c2 10             	add    $0x10,%edx
  402dd5:	eb dc                	jmp    0x402db3
  402dd7:	0f bc c1             	bsf    %ecx,%eax
  402dda:	03 c2                	add    %edx,%eax
  402ddc:	66 0f 7e da          	movd   %xmm3,%edx
  402de0:	33 c9                	xor    %ecx,%ecx
  402de2:	3a 10                	cmp    (%eax),%dl
  402de4:	0f 45 c1             	cmovne %ecx,%eax
  402de7:	c3                   	ret
  402de8:	33 c0                	xor    %eax,%eax
  402dea:	8a 44 24 08          	mov    0x8(%esp),%al
  402dee:	53                   	push   %ebx
  402def:	8b d8                	mov    %eax,%ebx
  402df1:	c1 e0 08             	shl    $0x8,%eax
  402df4:	8b 54 24 08          	mov    0x8(%esp),%edx
  402df8:	f7 c2 03 00 00 00    	test   $0x3,%edx
  402dfe:	74 15                	je     0x402e15
  402e00:	8a 0a                	mov    (%edx),%cl
  402e02:	83 c2 01             	add    $0x1,%edx
  402e05:	3a cb                	cmp    %bl,%cl
  402e07:	74 59                	je     0x402e62
  402e09:	84 c9                	test   %cl,%cl
  402e0b:	74 51                	je     0x402e5e
  402e0d:	f7 c2 03 00 00 00    	test   $0x3,%edx
  402e13:	75 eb                	jne    0x402e00
  402e15:	0b d8                	or     %eax,%ebx
  402e17:	57                   	push   %edi
  402e18:	8b c3                	mov    %ebx,%eax
  402e1a:	c1 e3 10             	shl    $0x10,%ebx
  402e1d:	56                   	push   %esi
  402e1e:	0b d8                	or     %eax,%ebx
  402e20:	8b 0a                	mov    (%edx),%ecx
  402e22:	bf ff fe fe 7e       	mov    $0x7efefeff,%edi
  402e27:	8b c1                	mov    %ecx,%eax
  402e29:	8b f7                	mov    %edi,%esi
  402e2b:	33 cb                	xor    %ebx,%ecx
  402e2d:	03 f0                	add    %eax,%esi
  402e2f:	03 f9                	add    %ecx,%edi
  402e31:	83 f1 ff             	xor    $0xffffffff,%ecx
  402e34:	83 f0 ff             	xor    $0xffffffff,%eax
  402e37:	33 cf                	xor    %edi,%ecx
  402e39:	33 c6                	xor    %esi,%eax
  402e3b:	83 c2 04             	add    $0x4,%edx
  402e3e:	81 e1 00 01 01 81    	and    $0x81010100,%ecx
  402e44:	75 21                	jne    0x402e67
  402e46:	25 00 01 01 81       	and    $0x81010100,%eax
  402e4b:	74 d3                	je     0x402e20
  402e4d:	25 00 01 01 01       	and    $0x1010100,%eax
  402e52:	75 08                	jne    0x402e5c
  402e54:	81 e6 00 00 00 80    	and    $0x80000000,%esi
  402e5a:	75 c4                	jne    0x402e20
  402e5c:	5e                   	pop    %esi
  402e5d:	5f                   	pop    %edi
  402e5e:	5b                   	pop    %ebx
  402e5f:	33 c0                	xor    %eax,%eax
  402e61:	c3                   	ret
  402e62:	8d 42 ff             	lea    -0x1(%edx),%eax
  402e65:	5b                   	pop    %ebx
  402e66:	c3                   	ret
  402e67:	8b 42 fc             	mov    -0x4(%edx),%eax
  402e6a:	3a c3                	cmp    %bl,%al
  402e6c:	74 36                	je     0x402ea4
  402e6e:	84 c0                	test   %al,%al
  402e70:	74 ea                	je     0x402e5c
  402e72:	3a e3                	cmp    %bl,%ah
  402e74:	74 27                	je     0x402e9d
  402e76:	84 e4                	test   %ah,%ah
  402e78:	74 e2                	je     0x402e5c
  402e7a:	c1 e8 10             	shr    $0x10,%eax
  402e7d:	3a c3                	cmp    %bl,%al
  402e7f:	74 15                	je     0x402e96
  402e81:	84 c0                	test   %al,%al
  402e83:	74 d7                	je     0x402e5c
  402e85:	3a e3                	cmp    %bl,%ah
  402e87:	74 06                	je     0x402e8f
  402e89:	84 e4                	test   %ah,%ah
  402e8b:	74 cf                	je     0x402e5c
  402e8d:	eb 91                	jmp    0x402e20
  402e8f:	5e                   	pop    %esi
  402e90:	5f                   	pop    %edi
  402e91:	8d 42 ff             	lea    -0x1(%edx),%eax
  402e94:	5b                   	pop    %ebx
  402e95:	c3                   	ret
  402e96:	8d 42 fe             	lea    -0x2(%edx),%eax
  402e99:	5e                   	pop    %esi
  402e9a:	5f                   	pop    %edi
  402e9b:	5b                   	pop    %ebx
  402e9c:	c3                   	ret
  402e9d:	8d 42 fd             	lea    -0x3(%edx),%eax
  402ea0:	5e                   	pop    %esi
  402ea1:	5f                   	pop    %edi
  402ea2:	5b                   	pop    %ebx
  402ea3:	c3                   	ret
  402ea4:	8d 42 fc             	lea    -0x4(%edx),%eax
  402ea7:	5e                   	pop    %esi
  402ea8:	5f                   	pop    %edi
  402ea9:	5b                   	pop    %ebx
  402eaa:	c3                   	ret
  402eab:	cc                   	int3
  402eac:	cc                   	int3
  402ead:	cc                   	int3
  402eae:	cc                   	int3
  402eaf:	cc                   	int3
  402eb0:	53                   	push   %ebx
  402eb1:	56                   	push   %esi
  402eb2:	57                   	push   %edi
  402eb3:	8b 54 24 10          	mov    0x10(%esp),%edx
  402eb7:	8b 44 24 14          	mov    0x14(%esp),%eax
  402ebb:	8b 4c 24 18          	mov    0x18(%esp),%ecx
  402ebf:	55                   	push   %ebp
  402ec0:	52                   	push   %edx
  402ec1:	50                   	push   %eax
  402ec2:	51                   	push   %ecx
  402ec3:	51                   	push   %ecx
  402ec4:	68 40 2f 40 00       	push   $0x402f40
  402ec9:	64 ff 35 00 00 00 00 	push   %fs:0x0
  402ed0:	a1 04 00 42 00       	mov    0x420004,%eax
  402ed5:	33 c4                	xor    %esp,%eax
  402ed7:	89 44 24 08          	mov    %eax,0x8(%esp)
  402edb:	64 89 25 00 00 00 00 	mov    %esp,%fs:0x0
  402ee2:	8b 44 24 30          	mov    0x30(%esp),%eax
  402ee6:	8b 58 08             	mov    0x8(%eax),%ebx
  402ee9:	8b 4c 24 2c          	mov    0x2c(%esp),%ecx
  402eed:	33 19                	xor    (%ecx),%ebx
  402eef:	8b 70 0c             	mov    0xc(%eax),%esi
  402ef2:	83 fe fe             	cmp    $0xfffffffe,%esi
  402ef5:	74 3b                	je     0x402f32
  402ef7:	8b 54 24 34          	mov    0x34(%esp),%edx
  402efb:	83 fa fe             	cmp    $0xfffffffe,%edx
  402efe:	74 04                	je     0x402f04
  402f00:	3b f2                	cmp    %edx,%esi
  402f02:	76 2e                	jbe    0x402f32
  402f04:	8d 34 76             	lea    (%esi,%esi,2),%esi
  402f07:	8d 5c b3 10          	lea    0x10(%ebx,%esi,4),%ebx
  402f0b:	8b 0b                	mov    (%ebx),%ecx
  402f0d:	89 48 0c             	mov    %ecx,0xc(%eax)
  402f10:	83 7b 04 00          	cmpl   $0x0,0x4(%ebx)
  402f14:	75 cc                	jne    0x402ee2
  402f16:	68 01 01 00 00       	push   $0x101
  402f1b:	8b 43 08             	mov    0x8(%ebx),%eax
  402f1e:	e8 82 05 00 00       	call   0x4034a5
  402f23:	b9 01 00 00 00       	mov    $0x1,%ecx
  402f28:	8b 43 08             	mov    0x8(%ebx),%eax
  402f2b:	e8 94 05 00 00       	call   0x4034c4
  402f30:	eb b0                	jmp    0x402ee2
  402f32:	64 8f 05 00 00 00 00 	pop    %fs:0x0
  402f39:	83 c4 18             	add    $0x18,%esp
  402f3c:	5f                   	pop    %edi
  402f3d:	5e                   	pop    %esi
  402f3e:	5b                   	pop    %ebx
  402f3f:	c3                   	ret
  402f40:	8b 4c 24 04          	mov    0x4(%esp),%ecx
  402f44:	f7 41 04 06 00 00 00 	testl  $0x6,0x4(%ecx)
  402f4b:	b8 01 00 00 00       	mov    $0x1,%eax
  402f50:	74 33                	je     0x402f85
  402f52:	8b 44 24 08          	mov    0x8(%esp),%eax
  402f56:	8b 48 08             	mov    0x8(%eax),%ecx
  402f59:	33 c8                	xor    %eax,%ecx
  402f5b:	e8 64 ec ff ff       	call   0x401bc4
  402f60:	55                   	push   %ebp
  402f61:	8b 68 18             	mov    0x18(%eax),%ebp
  402f64:	ff 70 0c             	push   0xc(%eax)
  402f67:	ff 70 10             	push   0x10(%eax)
  402f6a:	ff 70 14             	push   0x14(%eax)
  402f6d:	e8 3e ff ff ff       	call   0x402eb0
  402f72:	83 c4 0c             	add    $0xc,%esp
  402f75:	5d                   	pop    %ebp
  402f76:	8b 44 24 08          	mov    0x8(%esp),%eax
  402f7a:	8b 54 24 10          	mov    0x10(%esp),%edx
  402f7e:	89 02                	mov    %eax,(%edx)
  402f80:	b8 03 00 00 00       	mov    $0x3,%eax
  402f85:	c3                   	ret
  402f86:	55                   	push   %ebp
  402f87:	ff 74 24 08          	push   0x8(%esp)
  402f8b:	e8 21 f8 ff ff       	call   0x4027b1
  402f90:	83 c4 04             	add    $0x4,%esp
  402f93:	8b 4c 24 08          	mov    0x8(%esp),%ecx
  402f97:	8b 29                	mov    (%ecx),%ebp
  402f99:	ff 71 1c             	push   0x1c(%ecx)
  402f9c:	ff 71 18             	push   0x18(%ecx)
  402f9f:	ff 71 28             	push   0x28(%ecx)
  402fa2:	e8 09 ff ff ff       	call   0x402eb0
  402fa7:	83 c4 0c             	add    $0xc,%esp
  402faa:	5d                   	pop    %ebp
  402fab:	c2 04 00             	ret    $0x4
  402fae:	55                   	push   %ebp
  402faf:	56                   	push   %esi
  402fb0:	57                   	push   %edi
  402fb1:	53                   	push   %ebx
  402fb2:	8b ea                	mov    %edx,%ebp
  402fb4:	33 c0                	xor    %eax,%eax
  402fb6:	33 db                	xor    %ebx,%ebx
  402fb8:	33 d2                	xor    %edx,%edx
  402fba:	33 f6                	xor    %esi,%esi
  402fbc:	33 ff                	xor    %edi,%edi
  402fbe:	ff d1                	call   *%ecx
  402fc0:	5b                   	pop    %ebx
  402fc1:	5f                   	pop    %edi
  402fc2:	5e                   	pop    %esi
  402fc3:	5d                   	pop    %ebp
  402fc4:	c3                   	ret
  402fc5:	8b ea                	mov    %edx,%ebp
  402fc7:	8b f1                	mov    %ecx,%esi
  402fc9:	8b c1                	mov    %ecx,%eax
  402fcb:	6a 01                	push   $0x1
  402fcd:	e8 d3 04 00 00       	call   0x4034a5
  402fd2:	33 c0                	xor    %eax,%eax
  402fd4:	33 db                	xor    %ebx,%ebx
  402fd6:	33 c9                	xor    %ecx,%ecx
  402fd8:	33 d2                	xor    %edx,%edx
  402fda:	33 ff                	xor    %edi,%edi
  402fdc:	ff e6                	jmp    *%esi
  402fde:	55                   	push   %ebp
  402fdf:	8b ec                	mov    %esp,%ebp
  402fe1:	53                   	push   %ebx
  402fe2:	56                   	push   %esi
  402fe3:	57                   	push   %edi
  402fe4:	6a 00                	push   $0x0
  402fe6:	52                   	push   %edx
  402fe7:	68 f2 2f 40 00       	push   $0x402ff2
  402fec:	51                   	push   %ecx
  402fed:	e8 18 2c 01 00       	call   0x415c0a
  402ff2:	5f                   	pop    %edi
  402ff3:	5e                   	pop    %esi
  402ff4:	5b                   	pop    %ebx
  402ff5:	5d                   	pop    %ebp
  402ff6:	c3                   	ret
  402ff7:	55                   	push   %ebp
  402ff8:	8b 6c 24 08          	mov    0x8(%esp),%ebp
  402ffc:	52                   	push   %edx
  402ffd:	51                   	push   %ecx
  402ffe:	ff 74 24 14          	push   0x14(%esp)
  403002:	e8 a9 fe ff ff       	call   0x402eb0
  403007:	83 c4 0c             	add    $0xc,%esp
  40300a:	5d                   	pop    %ebp
  40300b:	c2 08 00             	ret    $0x8
  40300e:	55                   	push   %ebp
  40300f:	8b ec                	mov    %esp,%ebp
  403011:	8b 45 08             	mov    0x8(%ebp),%eax
  403014:	85 c0                	test   %eax,%eax
  403016:	74 0e                	je     0x403026
  403018:	3d 34 0c 42 00       	cmp    $0x420c34,%eax
  40301d:	74 07                	je     0x403026
  40301f:	50                   	push   %eax
  403020:	e8 78 7a 00 00       	call   0x40aa9d
  403025:	59                   	pop    %ecx
  403026:	5d                   	pop    %ebp
  403027:	c2 04 00             	ret    $0x4
  40302a:	68 0e 30 40 00       	push   $0x40300e
  40302f:	e8 d0 01 00 00       	call   0x403204
  403034:	a3 20 00 42 00       	mov    %eax,0x420020
  403039:	59                   	pop    %ecx
  40303a:	83 f8 ff             	cmp    $0xffffffff,%eax
  40303d:	75 03                	jne    0x403042
  40303f:	32 c0                	xor    %al,%al
  403041:	c3                   	ret
  403042:	68 34 0c 42 00       	push   $0x420c34
  403047:	50                   	push   %eax
  403048:	e8 2b 02 00 00       	call   0x403278
  40304d:	59                   	pop    %ecx
  40304e:	59                   	pop    %ecx
  40304f:	85 c0                	test   %eax,%eax
  403051:	75 07                	jne    0x40305a
  403053:	e8 05 00 00 00       	call   0x40305d
  403058:	eb e5                	jmp    0x40303f
  40305a:	b0 01                	mov    $0x1,%al
  40305c:	c3                   	ret
  40305d:	a1 20 00 42 00       	mov    0x420020,%eax
  403062:	83 f8 ff             	cmp    $0xffffffff,%eax
  403065:	74 0e                	je     0x403075
  403067:	50                   	push   %eax
  403068:	e8 d1 01 00 00       	call   0x40323e
  40306d:	83 0d 20 00 42 00 ff 	orl    $0xffffffff,0x420020
  403074:	59                   	pop    %ecx
  403075:	b0 01                	mov    $0x1,%al
  403077:	c3                   	ret
  403078:	56                   	push   %esi
  403079:	57                   	push   %edi
  40307a:	bf 5c 0c 42 00       	mov    $0x420c5c,%edi
  40307f:	33 f6                	xor    %esi,%esi
  403081:	6a 00                	push   $0x0
  403083:	68 a0 0f 00 00       	push   $0xfa0
  403088:	57                   	push   %edi
  403089:	e8 27 02 00 00       	call   0x4032b5
  40308e:	83 c4 0c             	add    $0xc,%esp
  403091:	85 c0                	test   %eax,%eax
  403093:	74 15                	je     0x4030aa
  403095:	ff 05 74 0c 42 00    	incl   0x420c74
  40309b:	83 c6 18             	add    $0x18,%esi
  40309e:	83 c7 18             	add    $0x18,%edi
  4030a1:	83 fe 18             	cmp    $0x18,%esi
  4030a4:	72 db                	jb     0x403081
  4030a6:	b0 01                	mov    $0x1,%al
  4030a8:	eb 07                	jmp    0x4030b1
  4030aa:	e8 05 00 00 00       	call   0x4030b4
  4030af:	32 c0                	xor    %al,%al
  4030b1:	5f                   	pop    %edi
  4030b2:	5e                   	pop    %esi
  4030b3:	c3                   	ret
  4030b4:	56                   	push   %esi
  4030b5:	8b 35 74 0c 42 00    	mov    0x420c74,%esi
  4030bb:	85 f6                	test   %esi,%esi
  4030bd:	74 20                	je     0x4030df
  4030bf:	6b c6 18             	imul   $0x18,%esi,%eax
  4030c2:	57                   	push   %edi
  4030c3:	8d b8 44 0c 42 00    	lea    0x420c44(%eax),%edi
  4030c9:	57                   	push   %edi
  4030ca:	ff 15 ec 70 41 00    	call   *0x4170ec
  4030d0:	ff 0d 74 0c 42 00    	decl   0x420c74
  4030d6:	83 ef 18             	sub    $0x18,%edi
  4030d9:	83 ee 01             	sub    $0x1,%esi
  4030dc:	75 eb                	jne    0x4030c9
  4030de:	5f                   	pop    %edi
  4030df:	b0 01                	mov    $0x1,%al
  4030e1:	5e                   	pop    %esi
  4030e2:	c3                   	ret
  4030e3:	55                   	push   %ebp
  4030e4:	8b ec                	mov    %esp,%ebp
  4030e6:	8b 45 08             	mov    0x8(%ebp),%eax
  4030e9:	33 c9                	xor    %ecx,%ecx
  4030eb:	53                   	push   %ebx
  4030ec:	56                   	push   %esi
  4030ed:	57                   	push   %edi
  4030ee:	8d 1c 85 88 0c 42 00 	lea    0x420c88(,%eax,4),%ebx
  4030f5:	33 c0                	xor    %eax,%eax
  4030f7:	f0 0f b1 0b          	lock cmpxchg %ecx,(%ebx)
  4030fb:	8b 15 04 00 42 00    	mov    0x420004,%edx
  403101:	83 cf ff             	or     $0xffffffff,%edi
  403104:	8b ca                	mov    %edx,%ecx
  403106:	8b f2                	mov    %edx,%esi
  403108:	83 e1 1f             	and    $0x1f,%ecx
  40310b:	33 f0                	xor    %eax,%esi
  40310d:	d3 ce                	ror    %cl,%esi
  40310f:	3b f7                	cmp    %edi,%esi
  403111:	74 69                	je     0x40317c
  403113:	85 f6                	test   %esi,%esi
  403115:	74 04                	je     0x40311b
  403117:	8b c6                	mov    %esi,%eax
  403119:	eb 63                	jmp    0x40317e
  40311b:	8b 75 10             	mov    0x10(%ebp),%esi
  40311e:	3b 75 14             	cmp    0x14(%ebp),%esi
  403121:	74 1a                	je     0x40313d
  403123:	ff 36                	push   (%esi)
  403125:	e8 59 00 00 00       	call   0x403183
  40312a:	59                   	pop    %ecx
  40312b:	85 c0                	test   %eax,%eax
  40312d:	75 2f                	jne    0x40315e
  40312f:	83 c6 04             	add    $0x4,%esi
  403132:	3b 75 14             	cmp    0x14(%ebp),%esi
  403135:	75 ec                	jne    0x403123
  403137:	8b 15 04 00 42 00    	mov    0x420004,%edx
  40313d:	33 c0                	xor    %eax,%eax
  40313f:	85 c0                	test   %eax,%eax
  403141:	74 29                	je     0x40316c
  403143:	ff 75 0c             	push   0xc(%ebp)
  403146:	50                   	push   %eax
  403147:	ff 15 14 70 41 00    	call   *0x417014
  40314d:	8b f0                	mov    %eax,%esi
  40314f:	85 f6                	test   %esi,%esi
  403151:	74 13                	je     0x403166
  403153:	56                   	push   %esi
  403154:	e8 b2 ee ff ff       	call   0x40200b
  403159:	59                   	pop    %ecx
  40315a:	87 03                	xchg   %eax,(%ebx)
  40315c:	eb b9                	jmp    0x403117
  40315e:	8b 15 04 00 42 00    	mov    0x420004,%edx
  403164:	eb d9                	jmp    0x40313f
  403166:	8b 15 04 00 42 00    	mov    0x420004,%edx
  40316c:	8b c2                	mov    %edx,%eax
  40316e:	6a 20                	push   $0x20
  403170:	83 e0 1f             	and    $0x1f,%eax
  403173:	59                   	pop    %ecx
  403174:	2b c8                	sub    %eax,%ecx
  403176:	d3 cf                	ror    %cl,%edi
  403178:	33 fa                	xor    %edx,%edi
  40317a:	87 3b                	xchg   %edi,(%ebx)
  40317c:	33 c0                	xor    %eax,%eax
  40317e:	5f                   	pop    %edi
  40317f:	5e                   	pop    %esi
  403180:	5b                   	pop    %ebx
  403181:	5d                   	pop    %ebp
  403182:	c3                   	ret
  403183:	55                   	push   %ebp
  403184:	8b ec                	mov    %esp,%ebp
  403186:	53                   	push   %ebx
  403187:	8b 5d 08             	mov    0x8(%ebp),%ebx
  40318a:	33 c9                	xor    %ecx,%ecx
  40318c:	57                   	push   %edi
  40318d:	33 c0                	xor    %eax,%eax
  40318f:	8d 3c 9d 78 0c 42 00 	lea    0x420c78(,%ebx,4),%edi
  403196:	f0 0f b1 0f          	lock cmpxchg %ecx,(%edi)
  40319a:	8b c8                	mov    %eax,%ecx
  40319c:	85 c9                	test   %ecx,%ecx
  40319e:	74 0b                	je     0x4031ab
  4031a0:	8d 41 01             	lea    0x1(%ecx),%eax
  4031a3:	f7 d8                	neg    %eax
  4031a5:	1b c0                	sbb    %eax,%eax
  4031a7:	23 c1                	and    %ecx,%eax
  4031a9:	eb 55                	jmp    0x403200
  4031ab:	8b 1c 9d 98 71 41 00 	mov    0x417198(,%ebx,4),%ebx
  4031b2:	56                   	push   %esi
  4031b3:	68 00 08 00 00       	push   $0x800
  4031b8:	6a 00                	push   $0x0
  4031ba:	53                   	push   %ebx
  4031bb:	ff 15 08 71 41 00    	call   *0x417108
  4031c1:	8b f0                	mov    %eax,%esi
  4031c3:	85 f6                	test   %esi,%esi
  4031c5:	75 27                	jne    0x4031ee
  4031c7:	ff 15 08 70 41 00    	call   *0x417008
  4031cd:	83 f8 57             	cmp    $0x57,%eax
  4031d0:	75 0d                	jne    0x4031df
  4031d2:	56                   	push   %esi
  4031d3:	56                   	push   %esi
  4031d4:	53                   	push   %ebx
  4031d5:	ff 15 08 71 41 00    	call   *0x417108
  4031db:	8b f0                	mov    %eax,%esi
  4031dd:	eb 02                	jmp    0x4031e1
  4031df:	33 f6                	xor    %esi,%esi
  4031e1:	85 f6                	test   %esi,%esi
  4031e3:	75 09                	jne    0x4031ee
  4031e5:	83 c8 ff             	or     $0xffffffff,%eax
  4031e8:	87 07                	xchg   %eax,(%edi)
  4031ea:	33 c0                	xor    %eax,%eax
  4031ec:	eb 11                	jmp    0x4031ff
  4031ee:	8b c6                	mov    %esi,%eax
  4031f0:	87 07                	xchg   %eax,(%edi)
  4031f2:	85 c0                	test   %eax,%eax
  4031f4:	74 07                	je     0x4031fd
  4031f6:	56                   	push   %esi
  4031f7:	ff 15 04 71 41 00    	call   *0x417104
  4031fd:	8b c6                	mov    %esi,%eax
  4031ff:	5e                   	pop    %esi
  403200:	5f                   	pop    %edi
  403201:	5b                   	pop    %ebx
  403202:	5d                   	pop    %ebp
  403203:	c3                   	ret
  403204:	55                   	push   %ebp
  403205:	8b ec                	mov    %esp,%ebp
  403207:	56                   	push   %esi
  403208:	68 50 72 41 00       	push   $0x417250
  40320d:	68 48 72 41 00       	push   $0x417248
  403212:	68 50 72 41 00       	push   $0x417250
  403217:	6a 04                	push   $0x4
  403219:	e8 c5 fe ff ff       	call   0x4030e3
  40321e:	8b f0                	mov    %eax,%esi
  403220:	83 c4 10             	add    $0x10,%esp
  403223:	85 f6                	test   %esi,%esi
  403225:	74 0f                	je     0x403236
  403227:	ff 75 08             	push   0x8(%ebp)
  40322a:	8b ce                	mov    %esi,%ecx
  40322c:	e8 74 f3 ff ff       	call   0x4025a5
  403231:	ff d6                	call   *%esi
  403233:	5e                   	pop    %esi
  403234:	5d                   	pop    %ebp
  403235:	c3                   	ret
  403236:	5e                   	pop    %esi
  403237:	5d                   	pop    %ebp
  403238:	ff 25 f4 70 41 00    	jmp    *0x4170f4
  40323e:	55                   	push   %ebp
  40323f:	8b ec                	mov    %esp,%ebp
  403241:	56                   	push   %esi
  403242:	68 64 72 41 00       	push   $0x417264
  403247:	68 5c 72 41 00       	push   $0x41725c
  40324c:	68 64 72 41 00       	push   $0x417264
  403251:	6a 05                	push   $0x5
  403253:	e8 8b fe ff ff       	call   0x4030e3
  403258:	83 c4 10             	add    $0x10,%esp
  40325b:	8b f0                	mov    %eax,%esi
  40325d:	ff 75 08             	push   0x8(%ebp)
  403260:	85 f6                	test   %esi,%esi
  403262:	74 0b                	je     0x40326f
  403264:	8b ce                	mov    %esi,%ecx
  403266:	e8 3a f3 ff ff       	call   0x4025a5
  40326b:	ff d6                	call   *%esi
  40326d:	eb 06                	jmp    0x403275
  40326f:	ff 15 00 71 41 00    	call   *0x417100
  403275:	5e                   	pop    %esi
  403276:	5d                   	pop    %ebp
  403277:	c3                   	ret
  403278:	55                   	push   %ebp
  403279:	8b ec                	mov    %esp,%ebp
  40327b:	56                   	push   %esi
  40327c:	68 80 72 41 00       	push   $0x417280
  403281:	68 78 72 41 00       	push   $0x417278
  403286:	68 80 72 41 00       	push   $0x417280
  40328b:	6a 07                	push   $0x7
  40328d:	e8 51 fe ff ff       	call   0x4030e3
  403292:	83 c4 10             	add    $0x10,%esp
  403295:	8b f0                	mov    %eax,%esi
  403297:	ff 75 0c             	push   0xc(%ebp)
  40329a:	ff 75 08             	push   0x8(%ebp)
  40329d:	85 f6                	test   %esi,%esi
  40329f:	74 0b                	je     0x4032ac
  4032a1:	8b ce                	mov    %esi,%ecx
  4032a3:	e8 fd f2 ff ff       	call   0x4025a5
  4032a8:	ff d6                	call   *%esi
  4032aa:	eb 06                	jmp    0x4032b2
  4032ac:	ff 15 fc 70 41 00    	call   *0x4170fc
  4032b2:	5e                   	pop    %esi
  4032b3:	5d                   	pop    %ebp
  4032b4:	c3                   	ret
  4032b5:	55                   	push   %ebp
  4032b6:	8b ec                	mov    %esp,%ebp
  4032b8:	56                   	push   %esi
  4032b9:	68 94 72 41 00       	push   $0x417294
  4032be:	68 8c 72 41 00       	push   $0x41728c
  4032c3:	68 94 72 41 00       	push   $0x417294
  4032c8:	6a 08                	push   $0x8
  4032ca:	e8 14 fe ff ff       	call   0x4030e3
  4032cf:	8b f0                	mov    %eax,%esi
  4032d1:	83 c4 10             	add    $0x10,%esp
  4032d4:	85 f6                	test   %esi,%esi
  4032d6:	74 14                	je     0x4032ec
  4032d8:	ff 75 10             	push   0x10(%ebp)
  4032db:	8b ce                	mov    %esi,%ecx
  4032dd:	ff 75 0c             	push   0xc(%ebp)
  4032e0:	ff 75 08             	push   0x8(%ebp)
  4032e3:	e8 bd f2 ff ff       	call   0x4025a5
  4032e8:	ff d6                	call   *%esi
  4032ea:	eb 0c                	jmp    0x4032f8
  4032ec:	ff 75 0c             	push   0xc(%ebp)
  4032ef:	ff 75 08             	push   0x8(%ebp)
  4032f2:	ff 15 f0 70 41 00    	call   *0x4170f0
  4032f8:	5e                   	pop    %esi
  4032f9:	5d                   	pop    %ebp
  4032fa:	c3                   	ret
  4032fb:	a1 04 00 42 00       	mov    0x420004,%eax
  403300:	ba ac 0c 42 00       	mov    $0x420cac,%edx
  403305:	56                   	push   %esi
  403306:	83 e0 1f             	and    $0x1f,%eax
  403309:	33 f6                	xor    %esi,%esi
  40330b:	6a 20                	push   $0x20
  40330d:	59                   	pop    %ecx
  40330e:	2b c8                	sub    %eax,%ecx
  403310:	b8 88 0c 42 00       	mov    $0x420c88,%eax
  403315:	d3 ce                	ror    %cl,%esi
  403317:	33 c9                	xor    %ecx,%ecx
  403319:	33 35 04 00 42 00    	xor    0x420004,%esi
  40331f:	3b d0                	cmp    %eax,%edx
  403321:	1b d2                	sbb    %edx,%edx
  403323:	83 e2 f7             	and    $0xfffffff7,%edx
  403326:	83 c2 09             	add    $0x9,%edx
  403329:	41                   	inc    %ecx
  40332a:	89 30                	mov    %esi,(%eax)
  40332c:	8d 40 04             	lea    0x4(%eax),%eax
  40332f:	3b ca                	cmp    %edx,%ecx
  403331:	75 f6                	jne    0x403329
  403333:	5e                   	pop    %esi
  403334:	c3                   	ret
  403335:	55                   	push   %ebp
  403336:	8b ec                	mov    %esp,%ebp
  403338:	80 7d 08 00          	cmpb   $0x0,0x8(%ebp)
  40333c:	75 27                	jne    0x403365
  40333e:	56                   	push   %esi
  40333f:	be 78 0c 42 00       	mov    $0x420c78,%esi
  403344:	83 3e 00             	cmpl   $0x0,(%esi)
  403347:	74 10                	je     0x403359
  403349:	83 3e ff             	cmpl   $0xffffffff,(%esi)
  40334c:	74 08                	je     0x403356
  40334e:	ff 36                	push   (%esi)
  403350:	ff 15 04 71 41 00    	call   *0x417104
  403356:	83 26 00             	andl   $0x0,(%esi)
  403359:	83 c6 04             	add    $0x4,%esi
  40335c:	81 fe 88 0c 42 00    	cmp    $0x420c88,%esi
  403362:	75 e0                	jne    0x403344
  403364:	5e                   	pop    %esi
  403365:	5d                   	pop    %ebp
  403366:	c3                   	ret
  403367:	a1 04 00 42 00       	mov    0x420004,%eax
  40336c:	83 e0 1f             	and    $0x1f,%eax
  40336f:	6a 20                	push   $0x20
  403371:	59                   	pop    %ecx
  403372:	2b c8                	sub    %eax,%ecx
  403374:	33 c0                	xor    %eax,%eax
  403376:	d3 c8                	ror    %cl,%eax
  403378:	33 05 04 00 42 00    	xor    0x420004,%eax
  40337e:	a3 ac 0c 42 00       	mov    %eax,0x420cac
  403383:	c3                   	ret
  403384:	cc                   	int3
  403385:	cc                   	int3
  403386:	cc                   	int3
  403387:	cc                   	int3
  403388:	cc                   	int3
  403389:	cc                   	int3
  40338a:	cc                   	int3
  40338b:	cc                   	int3
  40338c:	cc                   	int3
  40338d:	cc                   	int3
  40338e:	cc                   	int3
  40338f:	cc                   	int3
  403390:	55                   	push   %ebp
  403391:	8b ec                	mov    %esp,%ebp
  403393:	53                   	push   %ebx
  403394:	56                   	push   %esi
  403395:	57                   	push   %edi
  403396:	55                   	push   %ebp
  403397:	6a 00                	push   $0x0
  403399:	6a 00                	push   $0x0
  40339b:	68 a8 33 40 00       	push   $0x4033a8
  4033a0:	ff 75 08             	push   0x8(%ebp)
  4033a3:	e8 62 28 01 00       	call   0x415c0a
  4033a8:	5d                   	pop    %ebp
  4033a9:	5f                   	pop    %edi
  4033aa:	5e                   	pop    %esi
  4033ab:	5b                   	pop    %ebx
  4033ac:	8b e5                	mov    %ebp,%esp
  4033ae:	5d                   	pop    %ebp
  4033af:	c3                   	ret
  4033b0:	8b 4c 24 04          	mov    0x4(%esp),%ecx
  4033b4:	f7 41 04 06 00 00 00 	testl  $0x6,0x4(%ecx)
  4033bb:	b8 01 00 00 00       	mov    $0x1,%eax
  4033c0:	74 32                	je     0x4033f4
  4033c2:	8b 44 24 14          	mov    0x14(%esp),%eax
  4033c6:	8b 48 fc             	mov    -0x4(%eax),%ecx
  4033c9:	33 c8                	xor    %eax,%ecx
  4033cb:	e8 f4 e7 ff ff       	call   0x401bc4
  4033d0:	55                   	push   %ebp
  4033d1:	8b 68 10             	mov    0x10(%eax),%ebp
  4033d4:	8b 50 28             	mov    0x28(%eax),%edx
  4033d7:	52                   	push   %edx
  4033d8:	8b 50 24             	mov    0x24(%eax),%edx
  4033db:	52                   	push   %edx
  4033dc:	e8 14 00 00 00       	call   0x4033f5
  4033e1:	83 c4 08             	add    $0x8,%esp
  4033e4:	5d                   	pop    %ebp
  4033e5:	8b 44 24 08          	mov    0x8(%esp),%eax
  4033e9:	8b 54 24 10          	mov    0x10(%esp),%edx
  4033ed:	89 02                	mov    %eax,(%edx)
  4033ef:	b8 03 00 00 00       	mov    $0x3,%eax
  4033f4:	c3                   	ret
  4033f5:	53                   	push   %ebx
  4033f6:	56                   	push   %esi
  4033f7:	57                   	push   %edi
  4033f8:	8b 44 24 10          	mov    0x10(%esp),%eax
  4033fc:	55                   	push   %ebp
  4033fd:	50                   	push   %eax
  4033fe:	6a fe                	push   $0xfffffffe
  403400:	68 b0 33 40 00       	push   $0x4033b0
  403405:	64 ff 35 00 00 00 00 	push   %fs:0x0
  40340c:	a1 04 00 42 00       	mov    0x420004,%eax
  403411:	33 c4                	xor    %esp,%eax
  403413:	50                   	push   %eax
  403414:	8d 44 24 04          	lea    0x4(%esp),%eax
  403418:	64 a3 00 00 00 00    	mov    %eax,%fs:0x0
  40341e:	8b 44 24 28          	mov    0x28(%esp),%eax
  403422:	8b 58 08             	mov    0x8(%eax),%ebx
  403425:	8b 70 0c             	mov    0xc(%eax),%esi
  403428:	83 fe ff             	cmp    $0xffffffff,%esi
  40342b:	74 3a                	je     0x403467
  40342d:	83 7c 24 2c ff       	cmpl   $0xffffffff,0x2c(%esp)
  403432:	74 06                	je     0x40343a
  403434:	3b 74 24 2c          	cmp    0x2c(%esp),%esi
  403438:	76 2d                	jbe    0x403467
  40343a:	8d 34 76             	lea    (%esi,%esi,2),%esi
  40343d:	8b 0c b3             	mov    (%ebx,%esi,4),%ecx
  403440:	89 4c 24 0c          	mov    %ecx,0xc(%esp)
  403444:	89 48 0c             	mov    %ecx,0xc(%eax)
  403447:	83 7c b3 04 00       	cmpl   $0x0,0x4(%ebx,%esi,4)
  40344c:	75 17                	jne    0x403465
  40344e:	68 01 01 00 00       	push   $0x101
  403453:	8b 44 b3 08          	mov    0x8(%ebx,%esi,4),%eax
  403457:	e8 49 00 00 00       	call   0x4034a5
  40345c:	8b 44 b3 08          	mov    0x8(%ebx,%esi,4),%eax
  403460:	e8 5f 00 00 00       	call   0x4034c4
  403465:	eb b7                	jmp    0x40341e
  403467:	8b 4c 24 04          	mov    0x4(%esp),%ecx
  40346b:	64 89 0d 00 00 00 00 	mov    %ecx,%fs:0x0
  403472:	83 c4 18             	add    $0x18,%esp
  403475:	5f                   	pop    %edi
  403476:	5e                   	pop    %esi
  403477:	5b                   	pop    %ebx
  403478:	c3                   	ret
  403479:	33 c0                	xor    %eax,%eax
  40347b:	64 8b 0d 00 00 00 00 	mov    %fs:0x0,%ecx
  403482:	81 79 04 b0 33 40 00 	cmpl   $0x4033b0,0x4(%ecx)
  403489:	75 10                	jne    0x40349b
  40348b:	8b 51 0c             	mov    0xc(%ecx),%edx
  40348e:	8b 52 0c             	mov    0xc(%edx),%edx
  403491:	39 51 08             	cmp    %edx,0x8(%ecx)
  403494:	75 05                	jne    0x40349b
  403496:	b8 01 00 00 00       	mov    $0x1,%eax
  40349b:	c3                   	ret
  40349c:	53                   	push   %ebx
  40349d:	51                   	push   %ecx
  40349e:	bb 30 00 42 00       	mov    $0x420030,%ebx
  4034a3:	eb 0b                	jmp    0x4034b0
  4034a5:	53                   	push   %ebx
  4034a6:	51                   	push   %ecx
  4034a7:	bb 30 00 42 00       	mov    $0x420030,%ebx
  4034ac:	8b 4c 24 0c          	mov    0xc(%esp),%ecx
  4034b0:	89 4b 08             	mov    %ecx,0x8(%ebx)
  4034b3:	89 43 04             	mov    %eax,0x4(%ebx)
  4034b6:	89 6b 0c             	mov    %ebp,0xc(%ebx)
  4034b9:	55                   	push   %ebp
  4034ba:	51                   	push   %ecx
  4034bb:	50                   	push   %eax
  4034bc:	58                   	pop    %eax
  4034bd:	59                   	pop    %ecx
  4034be:	5d                   	pop    %ebp
  4034bf:	59                   	pop    %ecx
  4034c0:	5b                   	pop    %ebx
  4034c1:	c2 04 00             	ret    $0x4
  4034c4:	ff d0                	call   *%eax
  4034c6:	c3                   	ret
  4034c7:	6a 0c                	push   $0xc
  4034c9:	68 88 f5 41 00       	push   $0x41f588
  4034ce:	e8 dd f0 ff ff       	call   0x4025b0
  4034d3:	83 65 e4 00          	andl   $0x0,-0x1c(%ebp)
  4034d7:	8b 45 08             	mov    0x8(%ebp),%eax
  4034da:	ff 30                	push   (%eax)
  4034dc:	e8 a6 14 00 00       	call   0x404987
  4034e1:	59                   	pop    %ecx
  4034e2:	83 65 fc 00          	andl   $0x0,-0x4(%ebp)
  4034e6:	8b 4d 0c             	mov    0xc(%ebp),%ecx
  4034e9:	e8 f0 03 00 00       	call   0x4038de
  4034ee:	8b f0                	mov    %eax,%esi
  4034f0:	89 75 e4             	mov    %esi,-0x1c(%ebp)
  4034f3:	c7 45 fc fe ff ff ff 	movl   $0xfffffffe,-0x4(%ebp)
  4034fa:	e8 0d 00 00 00       	call   0x40350c
  4034ff:	8b c6                	mov    %esi,%eax
  403501:	e8 f0 f0 ff ff       	call   0x4025f6
  403506:	c2 0c 00             	ret    $0xc
  403509:	8b 75 e4             	mov    -0x1c(%ebp),%esi
  40350c:	8b 45 10             	mov    0x10(%ebp),%eax
  40350f:	ff 30                	push   (%eax)
  403511:	e8 85 14 00 00       	call   0x40499b
  403516:	59                   	pop    %ecx
  403517:	c3                   	ret
  403518:	8b ff                	mov    %edi,%edi
  40351a:	55                   	push   %ebp
  40351b:	8b ec                	mov    %esp,%ebp
  40351d:	83 ec 0c             	sub    $0xc,%esp
  403520:	8b 45 08             	mov    0x8(%ebp),%eax
  403523:	8d 4d ff             	lea    -0x1(%ebp),%ecx
  403526:	89 45 f8             	mov    %eax,-0x8(%ebp)
  403529:	89 45 f4             	mov    %eax,-0xc(%ebp)
  40352c:	8d 45 f8             	lea    -0x8(%ebp),%eax
  40352f:	50                   	push   %eax
  403530:	ff 75 0c             	push   0xc(%ebp)
  403533:	8d 45 f4             	lea    -0xc(%ebp),%eax
  403536:	50                   	push   %eax
  403537:	e8 8b ff ff ff       	call   0x4034c7
  40353c:	8b e5                	mov    %ebp,%esp
  40353e:	5d                   	pop    %ebp
  40353f:	c3                   	ret
  403540:	83 b9 04 04 00 00 00 	cmpl   $0x0,0x404(%ecx)
  403547:	75 06                	jne    0x40354f
  403549:	b8 00 02 00 00       	mov    $0x200,%eax
  40354e:	c3                   	ret
  40354f:	8b 81 00 04 00 00    	mov    0x400(%ecx),%eax
  403555:	d1 e8                	shr    %eax
  403557:	c3                   	ret
  403558:	8b ff                	mov    %edi,%edi
  40355a:	55                   	push   %ebp
  40355b:	8b ec                	mov    %esp,%ebp
  40355d:	51                   	push   %ecx
  40355e:	83 c8 ff             	or     $0xffffffff,%eax
  403561:	33 d2                	xor    %edx,%edx
  403563:	56                   	push   %esi
  403564:	8b 75 08             	mov    0x8(%ebp),%esi
  403567:	f7 f6                	div    %esi
  403569:	57                   	push   %edi
  40356a:	83 e0 fe             	and    $0xfffffffe,%eax
  40356d:	8b f9                	mov    %ecx,%edi
  40356f:	83 f8 02             	cmp    $0x2,%eax
  403572:	73 0f                	jae    0x403583
  403574:	e8 eb 80 00 00       	call   0x40b664
  403579:	c7 00 0c 00 00 00    	movl   $0xc,(%eax)
  40357f:	32 c0                	xor    %al,%al
  403581:	eb 53                	jmp    0x4035d6
  403583:	53                   	push   %ebx
  403584:	33 db                	xor    %ebx,%ebx
  403586:	03 f6                	add    %esi,%esi
  403588:	39 9f 04 04 00 00    	cmp    %ebx,0x404(%edi)
  40358e:	75 08                	jne    0x403598
  403590:	81 fe 00 04 00 00    	cmp    $0x400,%esi
  403596:	76 08                	jbe    0x4035a0
  403598:	3b b7 00 04 00 00    	cmp    0x400(%edi),%esi
  40359e:	77 04                	ja     0x4035a4
  4035a0:	b0 01                	mov    $0x1,%al
  4035a2:	eb 31                	jmp    0x4035d5
  4035a4:	56                   	push   %esi
  4035a5:	e8 2d 75 00 00       	call   0x40aad7
  4035aa:	89 45 fc             	mov    %eax,-0x4(%ebp)
  4035ad:	59                   	pop    %ecx
  4035ae:	85 c0                	test   %eax,%eax
  4035b0:	74 1a                	je     0x4035cc
  4035b2:	8d 45 fc             	lea    -0x4(%ebp),%eax
  4035b5:	50                   	push   %eax
  4035b6:	8d 8f 04 04 00 00    	lea    0x404(%edi),%ecx
  4035bc:	e8 f9 02 00 00       	call   0x4038ba
  4035c1:	8b 45 fc             	mov    -0x4(%ebp),%eax
  4035c4:	b3 01                	mov    $0x1,%bl
  4035c6:	89 b7 00 04 00 00    	mov    %esi,0x400(%edi)
  4035cc:	50                   	push   %eax
  4035cd:	e8 cb 74 00 00       	call   0x40aa9d
  4035d2:	59                   	pop    %ecx
  4035d3:	8a c3                	mov    %bl,%al
  4035d5:	5b                   	pop    %ebx
  4035d6:	5f                   	pop    %edi
  4035d7:	5e                   	pop    %esi
  4035d8:	8b e5                	mov    %ebp,%esp
  4035da:	5d                   	pop    %ebp
  4035db:	c2 04 00             	ret    $0x4
  4035de:	8b ff                	mov    %edi,%edi
  4035e0:	55                   	push   %ebp
  4035e1:	8b ec                	mov    %esp,%ebp
  4035e3:	8b 45 14             	mov    0x14(%ebp),%eax
  4035e6:	48                   	dec    %eax
  4035e7:	83 e8 01             	sub    $0x1,%eax
  4035ea:	74 2e                	je     0x40361a
  4035ec:	83 e8 01             	sub    $0x1,%eax
  4035ef:	74 25                	je     0x403616
  4035f1:	83 e8 09             	sub    $0x9,%eax
  4035f4:	74 20                	je     0x403616
  4035f6:	83 7d 14 0d          	cmpl   $0xd,0x14(%ebp)
  4035fa:	74 1e                	je     0x40361a
  4035fc:	8a 45 10             	mov    0x10(%ebp),%al
  4035ff:	3c 63                	cmp    $0x63,%al
  403601:	74 08                	je     0x40360b
  403603:	3c 73                	cmp    $0x73,%al
  403605:	74 04                	je     0x40360b
  403607:	32 c9                	xor    %cl,%cl
  403609:	eb 02                	jmp    0x40360d
  40360b:	b1 01                	mov    $0x1,%cl
  40360d:	33 c0                	xor    %eax,%eax
  40360f:	84 c9                	test   %cl,%cl
  403611:	0f 94 c0             	sete   %al
  403614:	5d                   	pop    %ebp
  403615:	c3                   	ret
  403616:	b0 01                	mov    $0x1,%al
  403618:	5d                   	pop    %ebp
  403619:	c3                   	ret
  40361a:	32 c0                	xor    %al,%al
  40361c:	5d                   	pop    %ebp
  40361d:	c3                   	ret
  40361e:	8b ff                	mov    %edi,%edi
  403620:	56                   	push   %esi
  403621:	8b f1                	mov    %ecx,%esi
  403623:	57                   	push   %edi
  403624:	8b be 04 04 00 00    	mov    0x404(%esi),%edi
  40362a:	e8 11 ff ff ff       	call   0x403540
  40362f:	85 ff                	test   %edi,%edi
  403631:	75 04                	jne    0x403637
  403633:	03 c6                	add    %esi,%eax
  403635:	eb 02                	jmp    0x403639
  403637:	03 c7                	add    %edi,%eax
  403639:	5f                   	pop    %edi
  40363a:	5e                   	pop    %esi
  40363b:	c3                   	ret
  40363c:	8b ff                	mov    %edi,%edi
  40363e:	55                   	push   %ebp
  40363f:	8b ec                	mov    %esp,%ebp
  403641:	53                   	push   %ebx
  403642:	56                   	push   %esi
  403643:	8b f1                	mov    %ecx,%esi
  403645:	57                   	push   %edi
  403646:	8d 4e 40             	lea    0x40(%esi),%ecx
  403649:	8b b9 04 04 00 00    	mov    0x404(%ecx),%edi
  40364f:	85 ff                	test   %edi,%edi
  403651:	75 02                	jne    0x403655
  403653:	8b f9                	mov    %ecx,%edi
  403655:	e8 e6 fe ff ff       	call   0x403540
  40365a:	8b 5d 08             	mov    0x8(%ebp),%ebx
  40365d:	48                   	dec    %eax
  40365e:	03 f8                	add    %eax,%edi
  403660:	89 7e 34             	mov    %edi,0x34(%esi)
  403663:	8b 4e 28             	mov    0x28(%esi),%ecx
  403666:	85 c9                	test   %ecx,%ecx
  403668:	7f 04                	jg     0x40366e
  40366a:	85 db                	test   %ebx,%ebx
  40366c:	74 30                	je     0x40369e
  40366e:	33 d2                	xor    %edx,%edx
  403670:	8b c3                	mov    %ebx,%eax
  403672:	f7 75 0c             	divl   0xc(%ebp)
  403675:	49                   	dec    %ecx
  403676:	80 c2 30             	add    $0x30,%dl
  403679:	89 4e 28             	mov    %ecx,0x28(%esi)
  40367c:	8b d8                	mov    %eax,%ebx
  40367e:	80 fa 39             	cmp    $0x39,%dl
  403681:	7e 11                	jle    0x403694
  403683:	80 7d 10 00          	cmpb   $0x0,0x10(%ebp)
  403687:	0f 94 c0             	sete   %al
  40368a:	fe c8                	dec    %al
  40368c:	24 e0                	and    $0xe0,%al
  40368e:	04 61                	add    $0x61,%al
  403690:	2c 3a                	sub    $0x3a,%al
  403692:	02 d0                	add    %al,%dl
  403694:	8b 46 34             	mov    0x34(%esi),%eax
  403697:	88 10                	mov    %dl,(%eax)
  403699:	ff 4e 34             	decl   0x34(%esi)
  40369c:	eb c5                	jmp    0x403663
  40369e:	8b 46 34             	mov    0x34(%esi),%eax
  4036a1:	2b f8                	sub    %eax,%edi
  4036a3:	89 7e 38             	mov    %edi,0x38(%esi)
  4036a6:	40                   	inc    %eax
  4036a7:	5f                   	pop    %edi
  4036a8:	89 46 34             	mov    %eax,0x34(%esi)
  4036ab:	5e                   	pop    %esi
  4036ac:	5b                   	pop    %ebx
  4036ad:	5d                   	pop    %ebp
  4036ae:	c2 0c 00             	ret    $0xc
  4036b1:	8b ff                	mov    %edi,%edi
  4036b3:	55                   	push   %ebp
  4036b4:	8b ec                	mov    %esp,%ebp
  4036b6:	51                   	push   %ecx
  4036b7:	51                   	push   %ecx
  4036b8:	53                   	push   %ebx
  4036b9:	56                   	push   %esi
  4036ba:	8b f1                	mov    %ecx,%esi
  4036bc:	57                   	push   %edi
  4036bd:	8d 4e 40             	lea    0x40(%esi),%ecx
  4036c0:	8b b9 04 04 00 00    	mov    0x404(%ecx),%edi
  4036c6:	85 ff                	test   %edi,%edi
  4036c8:	75 02                	jne    0x4036cc
  4036ca:	8b f9                	mov    %ecx,%edi
  4036cc:	e8 6f fe ff ff       	call   0x403540
  4036d1:	8b 55 0c             	mov    0xc(%ebp),%edx
  4036d4:	48                   	dec    %eax
  4036d5:	8b 5d 08             	mov    0x8(%ebp),%ebx
  4036d8:	03 f8                	add    %eax,%edi
  4036da:	89 7e 34             	mov    %edi,0x34(%esi)
  4036dd:	8b 4e 28             	mov    0x28(%esi),%ecx
  4036e0:	85 c9                	test   %ecx,%ecx
  4036e2:	7f 06                	jg     0x4036ea
  4036e4:	8b c3                	mov    %ebx,%eax
  4036e6:	0b c2                	or     %edx,%eax
  4036e8:	74 3a                	je     0x403724
  4036ea:	6a 00                	push   $0x0
  4036ec:	ff 75 10             	push   0x10(%ebp)
  4036ef:	8d 41 ff             	lea    -0x1(%ecx),%eax
  4036f2:	52                   	push   %edx
  4036f3:	53                   	push   %ebx
  4036f4:	89 46 28             	mov    %eax,0x28(%esi)
  4036f7:	e8 64 26 01 00       	call   0x415d60
  4036fc:	80 c1 30             	add    $0x30,%cl
  4036ff:	89 5d fc             	mov    %ebx,-0x4(%ebp)
  403702:	8b d8                	mov    %eax,%ebx
  403704:	80 f9 39             	cmp    $0x39,%cl
  403707:	7e 11                	jle    0x40371a
  403709:	80 7d 14 00          	cmpb   $0x0,0x14(%ebp)
  40370d:	0f 94 c0             	sete   %al
  403710:	fe c8                	dec    %al
  403712:	24 e0                	and    $0xe0,%al
  403714:	04 61                	add    $0x61,%al
  403716:	2c 3a                	sub    $0x3a,%al
  403718:	02 c8                	add    %al,%cl
  40371a:	8b 46 34             	mov    0x34(%esi),%eax
  40371d:	88 08                	mov    %cl,(%eax)
  40371f:	ff 4e 34             	decl   0x34(%esi)
  403722:	eb b9                	jmp    0x4036dd
  403724:	8b 46 34             	mov    0x34(%esi),%eax
  403727:	2b f8                	sub    %eax,%edi
  403729:	89 7e 38             	mov    %edi,0x38(%esi)
  40372c:	40                   	inc    %eax
  40372d:	5f                   	pop    %edi
  40372e:	89 46 34             	mov    %eax,0x34(%esi)
  403731:	5e                   	pop    %esi
  403732:	5b                   	pop    %ebx
  403733:	8b e5                	mov    %ebp,%esp
  403735:	5d                   	pop    %ebp
  403736:	c2 10 00             	ret    $0x10
  403739:	8b ff                	mov    %edi,%edi
  40373b:	55                   	push   %ebp
  40373c:	8b ec                	mov    %esp,%ebp
  40373e:	56                   	push   %esi
  40373f:	33 f6                	xor    %esi,%esi
  403741:	39 75 10             	cmp    %esi,0x10(%ebp)
  403744:	7e 1c                	jle    0x403762
  403746:	57                   	push   %edi
  403747:	8b 7d 14             	mov    0x14(%ebp),%edi
  40374a:	8b 4d 08             	mov    0x8(%ebp),%ecx
  40374d:	57                   	push   %edi
  40374e:	ff 75 0c             	push   0xc(%ebp)
  403751:	e8 28 0f 00 00       	call   0x40467e
  403756:	83 3f ff             	cmpl   $0xffffffff,(%edi)
  403759:	74 06                	je     0x403761
  40375b:	46                   	inc    %esi
  40375c:	3b 75 10             	cmp    0x10(%ebp),%esi
  40375f:	7c e9                	jl     0x40374a
  403761:	5f                   	pop    %edi
  403762:	5e                   	pop    %esi
  403763:	5d                   	pop    %ebp
  403764:	c3                   	ret
  403765:	8b ff                	mov    %edi,%edi
  403767:	55                   	push   %ebp
  403768:	8b ec                	mov    %esp,%ebp
  40376a:	51                   	push   %ecx
  40376b:	33 c0                	xor    %eax,%eax
  40376d:	89 4d fc             	mov    %ecx,-0x4(%ebp)
  403770:	89 01                	mov    %eax,(%ecx)
  403772:	89 41 04             	mov    %eax,0x4(%ecx)
  403775:	89 41 08             	mov    %eax,0x8(%ecx)
  403778:	89 41 0c             	mov    %eax,0xc(%ecx)
  40377b:	89 41 10             	mov    %eax,0x10(%ecx)
  40377e:	89 41 14             	mov    %eax,0x14(%ecx)
  403781:	89 41 18             	mov    %eax,0x18(%ecx)
  403784:	89 41 1c             	mov    %eax,0x1c(%ecx)
  403787:	89 41 20             	mov    %eax,0x20(%ecx)
  40378a:	89 41 24             	mov    %eax,0x24(%ecx)
  40378d:	89 41 28             	mov    %eax,0x28(%ecx)
  403790:	66 89 41 30          	mov    %ax,0x30(%ecx)
  403794:	89 41 38             	mov    %eax,0x38(%ecx)
  403797:	88 41 3c             	mov    %al,0x3c(%ecx)
  40379a:	89 81 40 04 00 00    	mov    %eax,0x440(%ecx)
  4037a0:	89 81 44 04 00 00    	mov    %eax,0x444(%ecx)
  4037a6:	8b c1                	mov    %ecx,%eax
  4037a8:	8b e5                	mov    %ebp,%esp
  4037aa:	5d                   	pop    %ebp
  4037ab:	c3                   	ret
  4037ac:	8b ff                	mov    %edi,%edi
  4037ae:	55                   	push   %ebp
  4037af:	8b ec                	mov    %esp,%ebp
  4037b1:	56                   	push   %esi
  4037b2:	8b f1                	mov    %ecx,%esi
  4037b4:	e8 ac ff ff ff       	call   0x403765
  4037b9:	8b 45 08             	mov    0x8(%ebp),%eax
  4037bc:	8b 00                	mov    (%eax),%eax
  4037be:	89 86 48 04 00 00    	mov    %eax,0x448(%esi)
  4037c4:	8b 45 0c             	mov    0xc(%ebp),%eax
  4037c7:	89 06                	mov    %eax,(%esi)
  4037c9:	8b 45 10             	mov    0x10(%ebp),%eax
  4037cc:	89 46 04             	mov    %eax,0x4(%esi)
  4037cf:	8b 45 18             	mov    0x18(%ebp),%eax
  4037d2:	89 46 08             	mov    %eax,0x8(%esi)
  4037d5:	8b 45 14             	mov    0x14(%ebp),%eax
  4037d8:	89 46 10             	mov    %eax,0x10(%esi)
  4037db:	8b 45 1c             	mov    0x1c(%ebp),%eax
  4037de:	89 46 14             	mov    %eax,0x14(%esi)
  4037e1:	8b c6                	mov    %esi,%eax
  4037e3:	5e                   	pop    %esi
  4037e4:	5d                   	pop    %ebp
  4037e5:	c2 18 00             	ret    $0x18
  4037e8:	8b ff                	mov    %edi,%edi
  4037ea:	55                   	push   %ebp
  4037eb:	8b ec                	mov    %esp,%ebp
  4037ed:	56                   	push   %esi
  4037ee:	ff 75 1c             	push   0x1c(%ebp)
  4037f1:	8b f1                	mov    %ecx,%esi
  4037f3:	ff 75 18             	push   0x18(%ebp)
  4037f6:	ff 75 14             	push   0x14(%ebp)
  4037f9:	ff 75 10             	push   0x10(%ebp)
  4037fc:	ff 75 0c             	push   0xc(%ebp)
  4037ff:	ff 75 08             	push   0x8(%ebp)
  403802:	e8 a5 ff ff ff       	call   0x4037ac
  403807:	83 a6 50 04 00 00 00 	andl   $0x0,0x450(%esi)
  40380e:	e8 51 7e 00 00       	call   0x40b664
  403813:	89 46 0c             	mov    %eax,0xc(%esi)
  403816:	8b c6                	mov    %esi,%eax
  403818:	5e                   	pop    %esi
  403819:	5d                   	pop    %ebp
  40381a:	c2 18 00             	ret    $0x18
  40381d:	8b ff                	mov    %edi,%edi
  40381f:	55                   	push   %ebp
  403820:	8b ec                	mov    %esp,%ebp
  403822:	57                   	push   %edi
  403823:	8b f9                	mov    %ecx,%edi
  403825:	8b 4d 08             	mov    0x8(%ebp),%ecx
  403828:	c6 47 0c 00          	movb   $0x0,0xc(%edi)
  40382c:	85 c9                	test   %ecx,%ecx
  40382e:	74 0a                	je     0x40383a
  403830:	8b 01                	mov    (%ecx),%eax
  403832:	89 47 04             	mov    %eax,0x4(%edi)
  403835:	8b 41 04             	mov    0x4(%ecx),%eax
  403838:	eb 16                	jmp    0x403850
  40383a:	a1 4c 0e 42 00       	mov    0x420e4c,%eax
  40383f:	85 c0                	test   %eax,%eax
  403841:	75 12                	jne    0x403855
  403843:	a1 b0 01 42 00       	mov    0x4201b0,%eax
  403848:	89 47 04             	mov    %eax,0x4(%edi)
  40384b:	a1 b4 01 42 00       	mov    0x4201b4,%eax
  403850:	89 47 08             	mov    %eax,0x8(%edi)
  403853:	eb 44                	jmp    0x403899
  403855:	56                   	push   %esi
  403856:	e8 31 87 00 00       	call   0x40bf8c
  40385b:	8d 57 04             	lea    0x4(%edi),%edx
  40385e:	89 07                	mov    %eax,(%edi)
  403860:	52                   	push   %edx
  403861:	8d 77 08             	lea    0x8(%edi),%esi
  403864:	8b 48 4c             	mov    0x4c(%eax),%ecx
  403867:	89 0a                	mov    %ecx,(%edx)
  403869:	8b 48 48             	mov    0x48(%eax),%ecx
  40386c:	50                   	push   %eax
  40386d:	89 0e                	mov    %ecx,(%esi)
  40386f:	e8 67 88 00 00       	call   0x40c0db
  403874:	56                   	push   %esi
  403875:	ff 37                	push   (%edi)
  403877:	e8 8c 88 00 00       	call   0x40c108
  40387c:	8b 0f                	mov    (%edi),%ecx
  40387e:	83 c4 10             	add    $0x10,%esp
  403881:	8b 81 50 03 00 00    	mov    0x350(%ecx),%eax
  403887:	5e                   	pop    %esi
  403888:	a8 02                	test   $0x2,%al
  40388a:	75 0d                	jne    0x403899
  40388c:	83 c8 02             	or     $0x2,%eax
  40388f:	89 81 50 03 00 00    	mov    %eax,0x350(%ecx)
  403895:	c6 47 0c 01          	movb   $0x1,0xc(%edi)
  403899:	8b c7                	mov    %edi,%eax
  40389b:	5f                   	pop    %edi
  40389c:	5d                   	pop    %ebp
  40389d:	c2 04 00             	ret    $0x4
  4038a0:	8b ff                	mov    %edi,%edi
  4038a2:	56                   	push   %esi
  4038a3:	8b f1                	mov    %ecx,%esi
  4038a5:	ff b6 04 04 00 00    	push   0x404(%esi)
  4038ab:	e8 ed 71 00 00       	call   0x40aa9d
  4038b0:	83 a6 04 04 00 00 00 	andl   $0x0,0x404(%esi)
  4038b7:	59                   	pop    %ecx
  4038b8:	5e                   	pop    %esi
  4038b9:	c3                   	ret
  4038ba:	8b ff                	mov    %edi,%edi
  4038bc:	55                   	push   %ebp
  4038bd:	8b ec                	mov    %esp,%ebp
  4038bf:	56                   	push   %esi
  4038c0:	8b f1                	mov    %ecx,%esi
  4038c2:	ff 36                	push   (%esi)
  4038c4:	e8 d4 71 00 00       	call   0x40aa9d
  4038c9:	8b 55 08             	mov    0x8(%ebp),%edx
  4038cc:	83 26 00             	andl   $0x0,(%esi)
  4038cf:	59                   	pop    %ecx
  4038d0:	8b 02                	mov    (%edx),%eax
  4038d2:	89 06                	mov    %eax,(%esi)
  4038d4:	8b c6                	mov    %esi,%eax
  4038d6:	83 22 00             	andl   $0x0,(%edx)
  4038d9:	5e                   	pop    %esi
  4038da:	5d                   	pop    %ebp
  4038db:	c2 04 00             	ret    $0x4
  4038de:	8b ff                	mov    %edi,%edi
  4038e0:	55                   	push   %ebp
  4038e1:	8b ec                	mov    %esp,%ebp
  4038e3:	81 ec 78 04 00 00    	sub    $0x478,%esp
  4038e9:	a1 04 00 42 00       	mov    0x420004,%eax
  4038ee:	33 c5                	xor    %ebp,%eax
  4038f0:	89 45 fc             	mov    %eax,-0x4(%ebp)
  4038f3:	56                   	push   %esi
  4038f4:	8b f1                	mov    %ecx,%esi
  4038f6:	57                   	push   %edi
  4038f7:	8b 06                	mov    (%esi),%eax
  4038f9:	8b 38                	mov    (%eax),%edi
  4038fb:	57                   	push   %edi
  4038fc:	e8 ad 92 00 00       	call   0x40cbae
  403901:	88 85 9c fb ff ff    	mov    %al,-0x464(%ebp)
  403907:	8b 46 04             	mov    0x4(%esi),%eax
  40390a:	59                   	pop    %ecx
  40390b:	8d 8d 88 fb ff ff    	lea    -0x478(%ebp),%ecx
  403911:	ff 30                	push   (%eax)
  403913:	e8 05 ff ff ff       	call   0x40381d
  403918:	8b 06                	mov    (%esi),%eax
  40391a:	8d 8d a4 fb ff ff    	lea    -0x45c(%ebp),%ecx
  403920:	8b 00                	mov    (%eax),%eax
  403922:	89 85 a0 fb ff ff    	mov    %eax,-0x460(%ebp)
  403928:	8b 46 10             	mov    0x10(%esi),%eax
  40392b:	ff 30                	push   (%eax)
  40392d:	8d 85 8c fb ff ff    	lea    -0x474(%ebp),%eax
  403933:	50                   	push   %eax
  403934:	8b 46 0c             	mov    0xc(%esi),%eax
  403937:	ff 30                	push   (%eax)
  403939:	8b 46 08             	mov    0x8(%esi),%eax
  40393c:	ff 70 04             	push   0x4(%eax)
  40393f:	ff 30                	push   (%eax)
  403941:	8d 85 a0 fb ff ff    	lea    -0x460(%ebp),%eax
  403947:	50                   	push   %eax
  403948:	e8 9b fe ff ff       	call   0x4037e8
  40394d:	8d 8d a4 fb ff ff    	lea    -0x45c(%ebp),%ecx
  403953:	e8 84 01 00 00       	call   0x403adc
  403958:	8d 8d e4 fb ff ff    	lea    -0x41c(%ebp),%ecx
  40395e:	8b f0                	mov    %eax,%esi
  403960:	e8 3b ff ff ff       	call   0x4038a0
  403965:	80 bd 94 fb ff ff 00 	cmpb   $0x0,-0x46c(%ebp)
  40396c:	74 0d                	je     0x40397b
  40396e:	8b 8d 88 fb ff ff    	mov    -0x478(%ebp),%ecx
  403974:	83 a1 50 03 00 00 fd 	andl   $0xfffffffd,0x350(%ecx)
  40397b:	57                   	push   %edi
  40397c:	ff b5 9c fb ff ff    	push   -0x464(%ebp)
  403982:	e8 dc 92 00 00       	call   0x40cc63
  403987:	59                   	pop    %ecx
  403988:	59                   	pop    %ecx
  403989:	8b 4d fc             	mov    -0x4(%ebp),%ecx
  40398c:	8b c6                	mov    %esi,%eax
  40398e:	5f                   	pop    %edi
  40398f:	33 cd                	xor    %ebp,%ecx
  403991:	5e                   	pop    %esi
  403992:	e8 2d e2 ff ff       	call   0x401bc4
  403997:	8b e5                	mov    %ebp,%esp
  403999:	5d                   	pop    %ebp
  40399a:	c3                   	ret
  40399b:	8b ff                	mov    %edi,%edi
  40399d:	55                   	push   %ebp
  40399e:	8b ec                	mov    %esp,%ebp
  4039a0:	8b 45 0c             	mov    0xc(%ebp),%eax
  4039a3:	8b 4d 08             	mov    0x8(%ebp),%ecx
  4039a6:	53                   	push   %ebx
  4039a7:	8b 00                	mov    (%eax),%eax
  4039a9:	8b 80 88 00 00 00    	mov    0x88(%eax),%eax
  4039af:	8b 00                	mov    (%eax),%eax
  4039b1:	8a 18                	mov    (%eax),%bl
  4039b3:	eb 05                	jmp    0x4039ba
  4039b5:	3a c3                	cmp    %bl,%al
  4039b7:	74 07                	je     0x4039c0
  4039b9:	41                   	inc    %ecx
  4039ba:	8a 01                	mov    (%ecx),%al
  4039bc:	84 c0                	test   %al,%al
  4039be:	75 f5                	jne    0x4039b5
  4039c0:	8a 01                	mov    (%ecx),%al
  4039c2:	41                   	inc    %ecx
  4039c3:	84 c0                	test   %al,%al
  4039c5:	74 28                	je     0x4039ef
  4039c7:	eb 09                	jmp    0x4039d2
  4039c9:	3c 65                	cmp    $0x65,%al
  4039cb:	74 0b                	je     0x4039d8
  4039cd:	3c 45                	cmp    $0x45,%al
  4039cf:	74 07                	je     0x4039d8
  4039d1:	41                   	inc    %ecx
  4039d2:	8a 01                	mov    (%ecx),%al
  4039d4:	84 c0                	test   %al,%al
  4039d6:	75 f1                	jne    0x4039c9
  4039d8:	8b d1                	mov    %ecx,%edx
  4039da:	49                   	dec    %ecx
  4039db:	80 39 30             	cmpb   $0x30,(%ecx)
  4039de:	74 fa                	je     0x4039da
  4039e0:	38 19                	cmp    %bl,(%ecx)
  4039e2:	75 01                	jne    0x4039e5
  4039e4:	49                   	dec    %ecx
  4039e5:	8a 02                	mov    (%edx),%al
  4039e7:	41                   	inc    %ecx
  4039e8:	42                   	inc    %edx
  4039e9:	88 01                	mov    %al,(%ecx)
  4039eb:	84 c0                	test   %al,%al
  4039ed:	75 f6                	jne    0x4039e5
  4039ef:	5b                   	pop    %ebx
  4039f0:	5d                   	pop    %ebp
  4039f1:	c3                   	ret
  4039f2:	8b ff                	mov    %edi,%edi
  4039f4:	55                   	push   %ebp
  4039f5:	8b ec                	mov    %esp,%ebp
  4039f7:	8a 4d 08             	mov    0x8(%ebp),%cl
  4039fa:	8d 41 e0             	lea    -0x20(%ecx),%eax
  4039fd:	3c 5a                	cmp    $0x5a,%al
  4039ff:	77 0f                	ja     0x403a10
  403a01:	0f be c1             	movsbl %cl,%eax
  403a04:	0f b6 88 f0 79 41 00 	movzbl 0x4179f0(%eax),%ecx
  403a0b:	83 e1 0f             	and    $0xf,%ecx
  403a0e:	eb 02                	jmp    0x403a12
  403a10:	33 c9                	xor    %ecx,%ecx
  403a12:	8b 45 0c             	mov    0xc(%ebp),%eax
  403a15:	0f b6 84 c8 10 7a 41 	movzbl 0x417a10(%eax,%ecx,8),%eax
  403a1c:	00 
  403a1d:	c1 e8 04             	shr    $0x4,%eax
  403a20:	5d                   	pop    %ebp
  403a21:	c2 08 00             	ret    $0x8
  403a24:	8b ff                	mov    %edi,%edi
  403a26:	55                   	push   %ebp
  403a27:	8b ec                	mov    %esp,%ebp
  403a29:	56                   	push   %esi
  403a2a:	8b 75 08             	mov    0x8(%ebp),%esi
  403a2d:	0f be 06             	movsbl (%esi),%eax
  403a30:	50                   	push   %eax
  403a31:	e8 85 7b 00 00       	call   0x40b5bb
  403a36:	83 f8 65             	cmp    $0x65,%eax
  403a39:	eb 0c                	jmp    0x403a47
  403a3b:	46                   	inc    %esi
  403a3c:	0f b6 06             	movzbl (%esi),%eax
  403a3f:	50                   	push   %eax
  403a40:	e8 9b 79 00 00       	call   0x40b3e0
  403a45:	85 c0                	test   %eax,%eax
  403a47:	59                   	pop    %ecx
  403a48:	75 f1                	jne    0x403a3b
  403a4a:	0f be 06             	movsbl (%esi),%eax
  403a4d:	50                   	push   %eax
  403a4e:	e8 68 7b 00 00       	call   0x40b5bb
  403a53:	59                   	pop    %ecx
  403a54:	83 f8 78             	cmp    $0x78,%eax
  403a57:	75 03                	jne    0x403a5c
  403a59:	83 c6 02             	add    $0x2,%esi
  403a5c:	8b 45 0c             	mov    0xc(%ebp),%eax
  403a5f:	8a 0e                	mov    (%esi),%cl
  403a61:	8b 00                	mov    (%eax),%eax
  403a63:	8b 80 88 00 00 00    	mov    0x88(%eax),%eax
  403a69:	8b 00                	mov    (%eax),%eax
  403a6b:	8a 00                	mov    (%eax),%al
  403a6d:	88 06                	mov    %al,(%esi)
  403a6f:	46                   	inc    %esi
  403a70:	8a 06                	mov    (%esi),%al
  403a72:	88 0e                	mov    %cl,(%esi)
  403a74:	8a c8                	mov    %al,%cl
  403a76:	8a 06                	mov    (%esi),%al
  403a78:	46                   	inc    %esi
  403a79:	84 c0                	test   %al,%al
  403a7b:	75 f3                	jne    0x403a70
  403a7d:	5e                   	pop    %esi
  403a7e:	5d                   	pop    %ebp
  403a7f:	c3                   	ret
  403a80:	8b ff                	mov    %edi,%edi
  403a82:	55                   	push   %ebp
  403a83:	8b ec                	mov    %esp,%ebp
  403a85:	51                   	push   %ecx
  403a86:	53                   	push   %ebx
  403a87:	56                   	push   %esi
  403a88:	8b f1                	mov    %ecx,%esi
  403a8a:	8d 4d fc             	lea    -0x4(%ebp),%ecx
  403a8d:	57                   	push   %edi
  403a8e:	6a 0a                	push   $0xa
  403a90:	51                   	push   %ecx
  403a91:	8b 7e 0c             	mov    0xc(%esi),%edi
  403a94:	8b 1f                	mov    (%edi),%ebx
  403a96:	83 27 00             	andl   $0x0,(%edi)
  403a99:	8b 46 10             	mov    0x10(%esi),%eax
  403a9c:	83 65 fc 00          	andl   $0x0,-0x4(%ebp)
  403aa0:	48                   	dec    %eax
  403aa1:	50                   	push   %eax
  403aa2:	e8 eb 7b 00 00       	call   0x40b692
  403aa7:	8b 4d 08             	mov    0x8(%ebp),%ecx
  403aaa:	83 c4 0c             	add    $0xc,%esp
  403aad:	89 01                	mov    %eax,(%ecx)
  403aaf:	8b 46 0c             	mov    0xc(%esi),%eax
  403ab2:	83 38 22             	cmpl   $0x22,(%eax)
  403ab5:	74 0f                	je     0x403ac6
  403ab7:	8b 45 fc             	mov    -0x4(%ebp),%eax
  403aba:	3b 46 10             	cmp    0x10(%esi),%eax
  403abd:	72 07                	jb     0x403ac6
  403abf:	89 46 10             	mov    %eax,0x10(%esi)
  403ac2:	b0 01                	mov    $0x1,%al
  403ac4:	eb 02                	jmp    0x403ac8
  403ac6:	32 c0                	xor    %al,%al
  403ac8:	83 3f 00             	cmpl   $0x0,(%edi)
  403acb:	75 06                	jne    0x403ad3
  403acd:	85 db                	test   %ebx,%ebx
  403acf:	74 02                	je     0x403ad3
  403ad1:	89 1f                	mov    %ebx,(%edi)
  403ad3:	5f                   	pop    %edi
  403ad4:	5e                   	pop    %esi
  403ad5:	5b                   	pop    %ebx
  403ad6:	8b e5                	mov    %ebp,%esp
  403ad8:	5d                   	pop    %ebp
  403ad9:	c2 04 00             	ret    $0x4
  403adc:	8b ff                	mov    %edi,%edi
  403ade:	56                   	push   %esi
  403adf:	8b f1                	mov    %ecx,%esi
  403ae1:	8d 8e 48 04 00 00    	lea    0x448(%esi),%ecx
  403ae7:	e8 ef 0a 00 00       	call   0x4045db
  403aec:	84 c0                	test   %al,%al
  403aee:	75 05                	jne    0x403af5
  403af0:	83 c8 ff             	or     $0xffffffff,%eax
  403af3:	5e                   	pop    %esi
  403af4:	c3                   	ret
  403af5:	53                   	push   %ebx
  403af6:	33 db                	xor    %ebx,%ebx
  403af8:	39 5e 10             	cmp    %ebx,0x10(%esi)
  403afb:	0f 85 bb 00 00 00    	jne    0x403bbc
  403b01:	e8 5e 7b 00 00       	call   0x40b664
  403b06:	c7 00 16 00 00 00    	movl   $0x16,(%eax)
  403b0c:	e8 1c 78 00 00       	call   0x40b32d
  403b11:	83 c8 ff             	or     $0xffffffff,%eax
  403b14:	e9 b9 00 00 00       	jmp    0x403bd2
  403b19:	89 5e 38             	mov    %ebx,0x38(%esi)
  403b1c:	89 5e 1c             	mov    %ebx,0x1c(%esi)
  403b1f:	e9 85 00 00 00       	jmp    0x403ba9
  403b24:	ff 46 10             	incl   0x10(%esi)
  403b27:	39 5e 18             	cmp    %ebx,0x18(%esi)
  403b2a:	0f 8c 8c 00 00 00    	jl     0x403bbc
  403b30:	ff 76 1c             	push   0x1c(%esi)
  403b33:	0f b6 46 31          	movzbl 0x31(%esi),%eax
  403b37:	8b ce                	mov    %esi,%ecx
  403b39:	50                   	push   %eax
  403b3a:	e8 b3 fe ff ff       	call   0x4039f2
  403b3f:	89 46 1c             	mov    %eax,0x1c(%esi)
  403b42:	83 f8 08             	cmp    $0x8,%eax
  403b45:	74 ba                	je     0x403b01
  403b47:	83 f8 07             	cmp    $0x7,%eax
  403b4a:	77 c5                	ja     0x403b11
  403b4c:	ff 24 85 d8 3b 40 00 	jmp    *0x403bd8(,%eax,4)
  403b53:	8b ce                	mov    %esi,%ecx
  403b55:	e8 db 00 00 00       	call   0x403c35
  403b5a:	eb 45                	jmp    0x403ba1
  403b5c:	83 4e 28 ff          	orl    $0xffffffff,0x28(%esi)
  403b60:	89 5e 24             	mov    %ebx,0x24(%esi)
  403b63:	88 5e 30             	mov    %bl,0x30(%esi)
  403b66:	89 5e 20             	mov    %ebx,0x20(%esi)
  403b69:	89 5e 2c             	mov    %ebx,0x2c(%esi)
  403b6c:	88 5e 3c             	mov    %bl,0x3c(%esi)
  403b6f:	eb 38                	jmp    0x403ba9
  403b71:	8b ce                	mov    %esi,%ecx
  403b73:	e8 80 00 00 00       	call   0x403bf8
  403b78:	eb 27                	jmp    0x403ba1
  403b7a:	8b ce                	mov    %esi,%ecx
  403b7c:	e8 1e 05 00 00       	call   0x40409f
  403b81:	eb 1e                	jmp    0x403ba1
  403b83:	89 5e 28             	mov    %ebx,0x28(%esi)
  403b86:	eb 21                	jmp    0x403ba9
  403b88:	8b ce                	mov    %esi,%ecx
  403b8a:	e8 50 01 00 00       	call   0x403cdf
  403b8f:	eb 10                	jmp    0x403ba1
  403b91:	8b ce                	mov    %esi,%ecx
  403b93:	e8 6f 01 00 00       	call   0x403d07
  403b98:	eb 07                	jmp    0x403ba1
  403b9a:	8b ce                	mov    %esi,%ecx
  403b9c:	e8 cf 02 00 00       	call   0x403e70
  403ba1:	84 c0                	test   %al,%al
  403ba3:	0f 84 68 ff ff ff    	je     0x403b11
  403ba9:	8b 46 10             	mov    0x10(%esi),%eax
  403bac:	8a 00                	mov    (%eax),%al
  403bae:	88 46 31             	mov    %al,0x31(%esi)
  403bb1:	84 c0                	test   %al,%al
  403bb3:	0f 85 6b ff ff ff    	jne    0x403b24
  403bb9:	ff 46 10             	incl   0x10(%esi)
  403bbc:	ff 86 50 04 00 00    	incl   0x450(%esi)
  403bc2:	83 be 50 04 00 00 02 	cmpl   $0x2,0x450(%esi)
  403bc9:	0f 85 4a ff ff ff    	jne    0x403b19
  403bcf:	8b 46 18             	mov    0x18(%esi),%eax
  403bd2:	5b                   	pop    %ebx
  403bd3:	5e                   	pop    %esi
  403bd4:	c3                   	ret
  403bd5:	8d 49 00             	lea    0x0(%ecx),%ecx
  403bd8:	53                   	push   %ebx
  403bd9:	3b 40 00             	cmp    0x0(%eax),%eax
  403bdc:	5c                   	pop    %esp
  403bdd:	3b 40 00             	cmp    0x0(%eax),%eax
  403be0:	71 3b                	jno    0x403c1d
  403be2:	40                   	inc    %eax
  403be3:	00 7a 3b             	add    %bh,0x3b(%edx)
  403be6:	40                   	inc    %eax
  403be7:	00 83 3b 40 00 88    	add    %al,-0x77ffbfc5(%ebx)
  403bed:	3b 40 00             	cmp    0x0(%eax),%eax
  403bf0:	91                   	xchg   %eax,%ecx
  403bf1:	3b 40 00             	cmp    0x0(%eax),%eax
  403bf4:	9a 3b 40 00 0f be 41 	lcall  $0x41be,$0xf00403b
  403bfb:	31 83 e8 20 74 2d    	xor    %eax,0x2d7420e8(%ebx)
  403c01:	83 e8 03             	sub    $0x3,%eax
  403c04:	74 22                	je     0x403c28
  403c06:	83 e8 08             	sub    $0x8,%eax
  403c09:	74 17                	je     0x403c22
  403c0b:	48                   	dec    %eax
  403c0c:	83 e8 01             	sub    $0x1,%eax
  403c0f:	74 0b                	je     0x403c1c
  403c11:	83 e8 03             	sub    $0x3,%eax
  403c14:	75 1c                	jne    0x403c32
  403c16:	83 49 20 08          	orl    $0x8,0x20(%ecx)
  403c1a:	eb 16                	jmp    0x403c32
  403c1c:	83 49 20 04          	orl    $0x4,0x20(%ecx)
  403c20:	eb 10                	jmp    0x403c32
  403c22:	83 49 20 01          	orl    $0x1,0x20(%ecx)
  403c26:	eb 0a                	jmp    0x403c32
  403c28:	83 49 20 20          	orl    $0x20,0x20(%ecx)
  403c2c:	eb 04                	jmp    0x403c32
  403c2e:	83 49 20 02          	orl    $0x2,0x20(%ecx)
  403c32:	b0 01                	mov    $0x1,%al
  403c34:	c3                   	ret
  403c35:	e8 1a 00 00 00       	call   0x403c54
  403c3a:	84 c0                	test   %al,%al
  403c3c:	75 13                	jne    0x403c51
  403c3e:	e8 21 7a 00 00       	call   0x40b664
  403c43:	c7 00 16 00 00 00    	movl   $0x16,(%eax)
  403c49:	e8 df 76 00 00       	call   0x40b32d
  403c4e:	32 c0                	xor    %al,%al
  403c50:	c3                   	ret
  403c51:	b0 01                	mov    $0x1,%al
  403c53:	c3                   	ret
  403c54:	8b ff                	mov    %edi,%edi
  403c56:	56                   	push   %esi
  403c57:	6a 00                	push   $0x0
  403c59:	8b f1                	mov    %ecx,%esi
  403c5b:	e8 1e 00 00 00       	call   0x403c7e
  403c60:	84 c0                	test   %al,%al
  403c62:	75 02                	jne    0x403c66
  403c64:	5e                   	pop    %esi
  403c65:	c3                   	ret
  403c66:	8d 46 18             	lea    0x18(%esi),%eax
  403c69:	50                   	push   %eax
  403c6a:	0f b6 46 31          	movzbl 0x31(%esi),%eax
  403c6e:	8d 8e 48 04 00 00    	lea    0x448(%esi),%ecx
  403c74:	50                   	push   %eax
  403c75:	e8 04 0a 00 00       	call   0x40467e
  403c7a:	b0 01                	mov    $0x1,%al
  403c7c:	5e                   	pop    %esi
  403c7d:	c3                   	ret
  403c7e:	8b ff                	mov    %edi,%edi
  403c80:	56                   	push   %esi
  403c81:	8b f1                	mov    %ecx,%esi
  403c83:	57                   	push   %edi
  403c84:	bf 00 80 00 00       	mov    $0x8000,%edi
  403c89:	8b 46 08             	mov    0x8(%esi),%eax
  403c8c:	8a 4e 31             	mov    0x31(%esi),%cl
  403c8f:	c6 46 3c 00          	movb   $0x0,0x3c(%esi)
  403c93:	0f b6 d1             	movzbl %cl,%edx
  403c96:	8b 00                	mov    (%eax),%eax
  403c98:	8b 00                	mov    (%eax),%eax
  403c9a:	66 85 3c 50          	test   %di,(%eax,%edx,2)
  403c9e:	74 38                	je     0x403cd8
  403ca0:	8d 46 18             	lea    0x18(%esi),%eax
  403ca3:	50                   	push   %eax
  403ca4:	51                   	push   %ecx
  403ca5:	8d 8e 48 04 00 00    	lea    0x448(%esi),%ecx
  403cab:	e8 ce 09 00 00       	call   0x40467e
  403cb0:	8b 4e 10             	mov    0x10(%esi),%ecx
  403cb3:	8a 01                	mov    (%ecx),%al
  403cb5:	88 46 31             	mov    %al,0x31(%esi)
  403cb8:	8d 41 01             	lea    0x1(%ecx),%eax
  403cbb:	80 7e 31 00          	cmpb   $0x0,0x31(%esi)
  403cbf:	89 46 10             	mov    %eax,0x10(%esi)
  403cc2:	75 14                	jne    0x403cd8
  403cc4:	e8 9b 79 00 00       	call   0x40b664
  403cc9:	c7 00 16 00 00 00    	movl   $0x16,(%eax)
  403ccf:	e8 59 76 00 00       	call   0x40b32d
  403cd4:	32 c0                	xor    %al,%al
  403cd6:	eb 02                	jmp    0x403cda
  403cd8:	b0 01                	mov    $0x1,%al
  403cda:	5f                   	pop    %edi
  403cdb:	5e                   	pop    %esi
  403cdc:	c2 04 00             	ret    $0x4
  403cdf:	80 79 31 2a          	cmpb   $0x2a,0x31(%ecx)
  403ce3:	74 0a                	je     0x403cef
  403ce5:	8d 41 28             	lea    0x28(%ecx),%eax
  403ce8:	50                   	push   %eax
  403ce9:	e8 92 fd ff ff       	call   0x403a80
  403cee:	c3                   	ret
  403cef:	83 41 14 04          	addl   $0x4,0x14(%ecx)
  403cf3:	8b 41 14             	mov    0x14(%ecx),%eax
  403cf6:	8b 40 fc             	mov    -0x4(%eax),%eax
  403cf9:	89 41 28             	mov    %eax,0x28(%ecx)
  403cfc:	85 c0                	test   %eax,%eax
  403cfe:	79 04                	jns    0x403d04
  403d00:	83 49 28 ff          	orl    $0xffffffff,0x28(%ecx)
  403d04:	b0 01                	mov    $0x1,%al
  403d06:	c3                   	ret
  403d07:	8a 41 31             	mov    0x31(%ecx),%al
  403d0a:	3c 46                	cmp    $0x46,%al
  403d0c:	75 1a                	jne    0x403d28
  403d0e:	8b 01                	mov    (%ecx),%eax
  403d10:	83 e0 08             	and    $0x8,%eax
  403d13:	83 c8 00             	or     $0x0,%eax
  403d16:	0f 85 51 01 00 00    	jne    0x403e6d
  403d1c:	c7 41 1c 07 00 00 00 	movl   $0x7,0x1c(%ecx)
  403d23:	e9 48 01 00 00       	jmp    0x403e70
  403d28:	3c 4e                	cmp    $0x4e,%al
  403d2a:	75 26                	jne    0x403d52
  403d2c:	8b 01                	mov    (%ecx),%eax
  403d2e:	6a 08                	push   $0x8
  403d30:	5a                   	pop    %edx
  403d31:	23 c2                	and    %edx,%eax
  403d33:	83 c8 00             	or     $0x0,%eax
  403d36:	0f 85 31 01 00 00    	jne    0x403e6d
  403d3c:	89 51 1c             	mov    %edx,0x1c(%ecx)
  403d3f:	e8 20 79 00 00       	call   0x40b664
  403d44:	c7 00 16 00 00 00    	movl   $0x16,(%eax)
  403d4a:	e8 de 75 00 00       	call   0x40b32d
  403d4f:	32 c0                	xor    %al,%al
  403d51:	c3                   	ret
  403d52:	83 79 2c 00          	cmpl   $0x0,0x2c(%ecx)
  403d56:	75 e7                	jne    0x403d3f
  403d58:	0f be c0             	movsbl %al,%eax
  403d5b:	83 f8 6a             	cmp    $0x6a,%eax
  403d5e:	0f 8f be 00 00 00    	jg     0x403e22
  403d64:	0f 84 af 00 00 00    	je     0x403e19
  403d6a:	83 f8 49             	cmp    $0x49,%eax
  403d6d:	74 4f                	je     0x403dbe
  403d6f:	83 f8 4c             	cmp    $0x4c,%eax
  403d72:	74 3e                	je     0x403db2
  403d74:	83 f8 54             	cmp    $0x54,%eax
  403d77:	74 2d                	je     0x403da6
  403d79:	83 f8 68             	cmp    $0x68,%eax
  403d7c:	0f 85 eb 00 00 00    	jne    0x403e6d
  403d82:	8b 41 10             	mov    0x10(%ecx),%eax
  403d85:	80 38 68             	cmpb   $0x68,(%eax)
  403d88:	75 10                	jne    0x403d9a
  403d8a:	40                   	inc    %eax
  403d8b:	c7 41 2c 01 00 00 00 	movl   $0x1,0x2c(%ecx)
  403d92:	89 41 10             	mov    %eax,0x10(%ecx)
  403d95:	e9 d3 00 00 00       	jmp    0x403e6d
  403d9a:	c7 41 2c 02 00 00 00 	movl   $0x2,0x2c(%ecx)
  403da1:	e9 c7 00 00 00       	jmp    0x403e6d
  403da6:	c7 41 2c 0d 00 00 00 	movl   $0xd,0x2c(%ecx)
  403dad:	e9 bb 00 00 00       	jmp    0x403e6d
  403db2:	c7 41 2c 08 00 00 00 	movl   $0x8,0x2c(%ecx)
  403db9:	e9 af 00 00 00       	jmp    0x403e6d
  403dbe:	8b 51 10             	mov    0x10(%ecx),%edx
  403dc1:	8a 02                	mov    (%edx),%al
  403dc3:	3c 33                	cmp    $0x33,%al
  403dc5:	75 18                	jne    0x403ddf
  403dc7:	80 7a 01 32          	cmpb   $0x32,0x1(%edx)
  403dcb:	75 12                	jne    0x403ddf
  403dcd:	8d 42 02             	lea    0x2(%edx),%eax
  403dd0:	c7 41 2c 0a 00 00 00 	movl   $0xa,0x2c(%ecx)
  403dd7:	89 41 10             	mov    %eax,0x10(%ecx)
  403dda:	e9 8e 00 00 00       	jmp    0x403e6d
  403ddf:	3c 36                	cmp    $0x36,%al
  403de1:	75 15                	jne    0x403df8
  403de3:	80 7a 01 34          	cmpb   $0x34,0x1(%edx)
  403de7:	75 0f                	jne    0x403df8
  403de9:	8d 42 02             	lea    0x2(%edx),%eax
  403dec:	c7 41 2c 0b 00 00 00 	movl   $0xb,0x2c(%ecx)
  403df3:	89 41 10             	mov    %eax,0x10(%ecx)
  403df6:	eb 75                	jmp    0x403e6d
  403df8:	3c 64                	cmp    $0x64,%al
  403dfa:	74 14                	je     0x403e10
  403dfc:	3c 69                	cmp    $0x69,%al
  403dfe:	74 10                	je     0x403e10
  403e00:	3c 6f                	cmp    $0x6f,%al
  403e02:	74 0c                	je     0x403e10
  403e04:	3c 75                	cmp    $0x75,%al
  403e06:	74 08                	je     0x403e10
  403e08:	3c 78                	cmp    $0x78,%al
  403e0a:	74 04                	je     0x403e10
  403e0c:	3c 58                	cmp    $0x58,%al
  403e0e:	75 5d                	jne    0x403e6d
  403e10:	c7 41 2c 09 00 00 00 	movl   $0x9,0x2c(%ecx)
  403e17:	eb 54                	jmp    0x403e6d
  403e19:	c7 41 2c 05 00 00 00 	movl   $0x5,0x2c(%ecx)
  403e20:	eb 4b                	jmp    0x403e6d
  403e22:	83 f8 6c             	cmp    $0x6c,%eax
  403e25:	74 2a                	je     0x403e51
  403e27:	83 f8 74             	cmp    $0x74,%eax
  403e2a:	74 1c                	je     0x403e48
  403e2c:	83 f8 77             	cmp    $0x77,%eax
  403e2f:	74 0e                	je     0x403e3f
  403e31:	83 f8 7a             	cmp    $0x7a,%eax
  403e34:	75 37                	jne    0x403e6d
  403e36:	c7 41 2c 06 00 00 00 	movl   $0x6,0x2c(%ecx)
  403e3d:	eb 2e                	jmp    0x403e6d
  403e3f:	c7 41 2c 0c 00 00 00 	movl   $0xc,0x2c(%ecx)
  403e46:	eb 25                	jmp    0x403e6d
  403e48:	c7 41 2c 07 00 00 00 	movl   $0x7,0x2c(%ecx)
  403e4f:	eb 1c                	jmp    0x403e6d
  403e51:	8b 41 10             	mov    0x10(%ecx),%eax
  403e54:	80 38 6c             	cmpb   $0x6c,(%eax)
  403e57:	75 0d                	jne    0x403e66
  403e59:	40                   	inc    %eax
  403e5a:	c7 41 2c 04 00 00 00 	movl   $0x4,0x2c(%ecx)
  403e61:	89 41 10             	mov    %eax,0x10(%ecx)
  403e64:	eb 07                	jmp    0x403e6d
  403e66:	c7 41 2c 03 00 00 00 	movl   $0x3,0x2c(%ecx)
  403e6d:	b0 01                	mov    $0x1,%al
  403e6f:	c3                   	ret
  403e70:	8b ff                	mov    %edi,%edi
  403e72:	55                   	push   %ebp
  403e73:	8b ec                	mov    %esp,%ebp
  403e75:	51                   	push   %ecx
  403e76:	53                   	push   %ebx
  403e77:	56                   	push   %esi
  403e78:	8b f1                	mov    %ecx,%esi
  403e7a:	33 db                	xor    %ebx,%ebx
  403e7c:	43                   	inc    %ebx
  403e7d:	33 c9                	xor    %ecx,%ecx
  403e7f:	0f be 46 31          	movsbl 0x31(%esi),%eax
  403e83:	83 f8 64             	cmp    $0x64,%eax
  403e86:	7f 6c                	jg     0x403ef4
  403e88:	0f 84 93 00 00 00    	je     0x403f21
  403e8e:	83 f8 58             	cmp    $0x58,%eax
  403e91:	7f 3e                	jg     0x403ed1
  403e93:	74 37                	je     0x403ecc
  403e95:	83 f8 41             	cmp    $0x41,%eax
  403e98:	0f 84 93 00 00 00    	je     0x403f31
  403e9e:	83 f8 43             	cmp    $0x43,%eax
  403ea1:	74 3e                	je     0x403ee1
  403ea3:	83 f8 44             	cmp    $0x44,%eax
  403ea6:	7e 1d                	jle    0x403ec5
  403ea8:	83 f8 47             	cmp    $0x47,%eax
  403eab:	0f 8e 80 00 00 00    	jle    0x403f31
  403eb1:	83 f8 53             	cmp    $0x53,%eax
  403eb4:	75 0f                	jne    0x403ec5
  403eb6:	8b ce                	mov    %esi,%ecx
  403eb8:	e8 ab 06 00 00       	call   0x404568
  403ebd:	84 c0                	test   %al,%al
  403ebf:	0f 85 9f 00 00 00    	jne    0x403f64
  403ec5:	32 c0                	xor    %al,%al
  403ec7:	e9 cd 01 00 00       	jmp    0x404099
  403ecc:	53                   	push   %ebx
  403ecd:	6a 10                	push   $0x10
  403ecf:	eb 57                	jmp    0x403f28
  403ed1:	83 e8 5a             	sub    $0x5a,%eax
  403ed4:	74 15                	je     0x403eeb
  403ed6:	83 e8 07             	sub    $0x7,%eax
  403ed9:	74 56                	je     0x403f31
  403edb:	48                   	dec    %eax
  403edc:	83 e8 01             	sub    $0x1,%eax
  403edf:	75 e4                	jne    0x403ec5
  403ee1:	51                   	push   %ecx
  403ee2:	8b ce                	mov    %esi,%ecx
  403ee4:	e8 fa 03 00 00       	call   0x4042e3
  403ee9:	eb d2                	jmp    0x403ebd
  403eeb:	8b ce                	mov    %esi,%ecx
  403eed:	e8 34 02 00 00       	call   0x404126
  403ef2:	eb c9                	jmp    0x403ebd
  403ef4:	83 f8 70             	cmp    $0x70,%eax
  403ef7:	7f 4d                	jg     0x403f46
  403ef9:	74 3f                	je     0x403f3a
  403efb:	83 f8 67             	cmp    $0x67,%eax
  403efe:	7e 31                	jle    0x403f31
  403f00:	83 f8 69             	cmp    $0x69,%eax
  403f03:	74 1c                	je     0x403f21
  403f05:	83 f8 6e             	cmp    $0x6e,%eax
  403f08:	74 0e                	je     0x403f18
  403f0a:	83 f8 6f             	cmp    $0x6f,%eax
  403f0d:	75 b6                	jne    0x403ec5
  403f0f:	8b ce                	mov    %esi,%ecx
  403f11:	e8 1b 06 00 00       	call   0x404531
  403f16:	eb a5                	jmp    0x403ebd
  403f18:	8b ce                	mov    %esi,%ecx
  403f1a:	e8 9e 05 00 00       	call   0x4044bd
  403f1f:	eb 9c                	jmp    0x403ebd
  403f21:	83 4e 20 10          	orl    $0x10,0x20(%esi)
  403f25:	51                   	push   %ecx
  403f26:	6a 0a                	push   $0xa
  403f28:	8b ce                	mov    %esi,%ecx
  403f2a:	e8 44 04 00 00       	call   0x404373
  403f2f:	eb 8c                	jmp    0x403ebd
  403f31:	8b ce                	mov    %esi,%ecx
  403f33:	e8 51 02 00 00       	call   0x404189
  403f38:	eb 83                	jmp    0x403ebd
  403f3a:	8b ce                	mov    %esi,%ecx
  403f3c:	e8 0f 06 00 00       	call   0x404550
  403f41:	e9 77 ff ff ff       	jmp    0x403ebd
  403f46:	83 e8 73             	sub    $0x73,%eax
  403f49:	0f 84 67 ff ff ff    	je     0x403eb6
  403f4f:	48                   	dec    %eax
  403f50:	83 e8 01             	sub    $0x1,%eax
  403f53:	74 d0                	je     0x403f25
  403f55:	83 e8 03             	sub    $0x3,%eax
  403f58:	0f 85 67 ff ff ff    	jne    0x403ec5
  403f5e:	51                   	push   %ecx
  403f5f:	e9 69 ff ff ff       	jmp    0x403ecd
  403f64:	80 7e 30 00          	cmpb   $0x0,0x30(%esi)
  403f68:	74 07                	je     0x403f71
  403f6a:	8a c3                	mov    %bl,%al
  403f6c:	e9 28 01 00 00       	jmp    0x404099
  403f71:	8b 56 20             	mov    0x20(%esi),%edx
  403f74:	33 c0                	xor    %eax,%eax
  403f76:	57                   	push   %edi
  403f77:	66 89 45 fc          	mov    %ax,-0x4(%ebp)
  403f7b:	8b f8                	mov    %eax,%edi
  403f7d:	88 45 fe             	mov    %al,-0x2(%ebp)
  403f80:	8b c2                	mov    %edx,%eax
  403f82:	c1 e8 04             	shr    $0x4,%eax
  403f85:	84 c3                	test   %al,%bl
  403f87:	74 27                	je     0x403fb0
  403f89:	8b c2                	mov    %edx,%eax
  403f8b:	c1 e8 06             	shr    $0x6,%eax
  403f8e:	84 c3                	test   %al,%bl
  403f90:	74 06                	je     0x403f98
  403f92:	c6 45 fc 2d          	movb   $0x2d,-0x4(%ebp)
  403f96:	eb 16                	jmp    0x403fae
  403f98:	84 d3                	test   %dl,%bl
  403f9a:	74 06                	je     0x403fa2
  403f9c:	c6 45 fc 2b          	movb   $0x2b,-0x4(%ebp)
  403fa0:	eb 0c                	jmp    0x403fae
  403fa2:	8b c2                	mov    %edx,%eax
  403fa4:	d1 e8                	shr    %eax
  403fa6:	84 c3                	test   %al,%bl
  403fa8:	74 06                	je     0x403fb0
  403faa:	c6 45 fc 20          	movb   $0x20,-0x4(%ebp)
  403fae:	8b fb                	mov    %ebx,%edi
  403fb0:	8a 4e 31             	mov    0x31(%esi),%cl
  403fb3:	80 f9 78             	cmp    $0x78,%cl
  403fb6:	74 05                	je     0x403fbd
  403fb8:	80 f9 58             	cmp    $0x58,%cl
  403fbb:	75 09                	jne    0x403fc6
  403fbd:	8b c2                	mov    %edx,%eax
  403fbf:	c1 e8 05             	shr    $0x5,%eax
  403fc2:	84 c3                	test   %al,%bl
  403fc4:	75 02                	jne    0x403fc8
  403fc6:	32 db                	xor    %bl,%bl
  403fc8:	80 f9 61             	cmp    $0x61,%cl
  403fcb:	74 09                	je     0x403fd6
  403fcd:	80 f9 41             	cmp    $0x41,%cl
  403fd0:	74 04                	je     0x403fd6
  403fd2:	32 c0                	xor    %al,%al
  403fd4:	eb 02                	jmp    0x403fd8
  403fd6:	b0 01                	mov    $0x1,%al
  403fd8:	84 db                	test   %bl,%bl
  403fda:	75 04                	jne    0x403fe0
  403fdc:	84 c0                	test   %al,%al
  403fde:	74 27                	je     0x404007
  403fe0:	c6 44 3d fc 30       	movb   $0x30,-0x4(%ebp,%edi,1)
  403fe5:	80 f9 58             	cmp    $0x58,%cl
  403fe8:	74 09                	je     0x403ff3
  403fea:	80 f9 41             	cmp    $0x41,%cl
  403fed:	74 04                	je     0x403ff3
  403fef:	32 c0                	xor    %al,%al
  403ff1:	eb 02                	jmp    0x403ff5
  403ff3:	b0 01                	mov    $0x1,%al
  403ff5:	84 c0                	test   %al,%al
  403ff7:	0f 94 c0             	sete   %al
  403ffa:	fe c8                	dec    %al
  403ffc:	24 e0                	and    $0xe0,%al
  403ffe:	04 78                	add    $0x78,%al
  404000:	88 44 3d fd          	mov    %al,-0x3(%ebp,%edi,1)
  404004:	83 c7 02             	add    $0x2,%edi
  404007:	8b 5e 24             	mov    0x24(%esi),%ebx
  40400a:	2b 5e 38             	sub    0x38(%esi),%ebx
  40400d:	2b df                	sub    %edi,%ebx
  40400f:	f6 c2 0c             	test   $0xc,%dl
  404012:	75 16                	jne    0x40402a
  404014:	8d 46 18             	lea    0x18(%esi),%eax
  404017:	50                   	push   %eax
  404018:	53                   	push   %ebx
  404019:	8d 86 48 04 00 00    	lea    0x448(%esi),%eax
  40401f:	6a 20                	push   $0x20
  404021:	50                   	push   %eax
  404022:	e8 12 f7 ff ff       	call   0x403739
  404027:	83 c4 10             	add    $0x10,%esp
  40402a:	ff 76 0c             	push   0xc(%esi)
  40402d:	8d 46 18             	lea    0x18(%esi),%eax
  404030:	50                   	push   %eax
  404031:	57                   	push   %edi
  404032:	8d 45 fc             	lea    -0x4(%ebp),%eax
  404035:	8d 8e 48 04 00 00    	lea    0x448(%esi),%ecx
  40403b:	50                   	push   %eax
  40403c:	e8 21 07 00 00       	call   0x404762
  404041:	8b 4e 20             	mov    0x20(%esi),%ecx
  404044:	8d 7e 18             	lea    0x18(%esi),%edi
  404047:	8b c1                	mov    %ecx,%eax
  404049:	c1 e8 03             	shr    $0x3,%eax
  40404c:	a8 01                	test   $0x1,%al
  40404e:	74 1b                	je     0x40406b
  404050:	c1 e9 02             	shr    $0x2,%ecx
  404053:	f6 c1 01             	test   $0x1,%cl
  404056:	75 13                	jne    0x40406b
  404058:	57                   	push   %edi
  404059:	53                   	push   %ebx
  40405a:	8d 86 48 04 00 00    	lea    0x448(%esi),%eax
  404060:	6a 30                	push   $0x30
  404062:	50                   	push   %eax
  404063:	e8 d1 f6 ff ff       	call   0x403739
  404068:	83 c4 10             	add    $0x10,%esp
  40406b:	6a 00                	push   $0x0
  40406d:	8b ce                	mov    %esi,%ecx
  40406f:	e8 47 06 00 00       	call   0x4046bb
  404074:	83 3f 00             	cmpl   $0x0,(%edi)
  404077:	7c 1d                	jl     0x404096
  404079:	8b 46 20             	mov    0x20(%esi),%eax
  40407c:	c1 e8 02             	shr    $0x2,%eax
  40407f:	a8 01                	test   $0x1,%al
  404081:	74 13                	je     0x404096
  404083:	57                   	push   %edi
  404084:	53                   	push   %ebx
  404085:	8d 86 48 04 00 00    	lea    0x448(%esi),%eax
  40408b:	6a 20                	push   $0x20
  40408d:	50                   	push   %eax
  40408e:	e8 a6 f6 ff ff       	call   0x403739
  404093:	83 c4 10             	add    $0x10,%esp
  404096:	b0 01                	mov    $0x1,%al
  404098:	5f                   	pop    %edi
  404099:	5e                   	pop    %esi
  40409a:	5b                   	pop    %ebx
  40409b:	8b e5                	mov    %ebp,%esp
  40409d:	5d                   	pop    %ebp
  40409e:	c3                   	ret
  40409f:	80 79 31 2a          	cmpb   $0x2a,0x31(%ecx)
  4040a3:	74 0a                	je     0x4040af
  4040a5:	8d 41 24             	lea    0x24(%ecx),%eax
  4040a8:	50                   	push   %eax
  4040a9:	e8 d2 f9 ff ff       	call   0x403a80
  4040ae:	c3                   	ret
  4040af:	83 41 14 04          	addl   $0x4,0x14(%ecx)
  4040b3:	8b 41 14             	mov    0x14(%ecx),%eax
  4040b6:	8b 40 fc             	mov    -0x4(%eax),%eax
  4040b9:	89 41 24             	mov    %eax,0x24(%ecx)
  4040bc:	85 c0                	test   %eax,%eax
  4040be:	79 07                	jns    0x4040c7
  4040c0:	83 49 20 04          	orl    $0x4,0x20(%ecx)
  4040c4:	f7 59 24             	negl   0x24(%ecx)
  4040c7:	b0 01                	mov    $0x1,%al
  4040c9:	c3                   	ret
  4040ca:	8b ff                	mov    %edi,%edi
  4040cc:	55                   	push   %ebp
  4040cd:	8b ec                	mov    %esp,%ebp
  4040cf:	8b 45 08             	mov    0x8(%ebp),%eax
  4040d2:	83 f8 0b             	cmp    $0xb,%eax
  4040d5:	77 19                	ja     0x4040f0
  4040d7:	ff 24 85 f6 40 40 00 	jmp    *0x4040f6(,%eax,4)
  4040de:	6a 04                	push   $0x4
  4040e0:	58                   	pop    %eax
  4040e1:	5d                   	pop    %ebp
  4040e2:	c3                   	ret
  4040e3:	33 c0                	xor    %eax,%eax
  4040e5:	40                   	inc    %eax
  4040e6:	5d                   	pop    %ebp
  4040e7:	c3                   	ret
  4040e8:	6a 02                	push   $0x2
  4040ea:	eb f4                	jmp    0x4040e0
  4040ec:	6a 08                	push   $0x8
  4040ee:	eb f0                	jmp    0x4040e0
  4040f0:	33 c0                	xor    %eax,%eax
  4040f2:	5d                   	pop    %ebp
  4040f3:	c3                   	ret
  4040f4:	8b ff                	mov    %edi,%edi
  4040f6:	de 40 40             	fiadds 0x40(%eax)
  4040f9:	00 e3                	add    %ah,%bl
  4040fb:	40                   	inc    %eax
  4040fc:	40                   	inc    %eax
  4040fd:	00 e8                	add    %ch,%al
  4040ff:	40                   	inc    %eax
  404100:	40                   	inc    %eax
  404101:	00 de                	add    %bl,%dh
  404103:	40                   	inc    %eax
  404104:	40                   	inc    %eax
  404105:	00 ec                	add    %ch,%ah
  404107:	40                   	inc    %eax
  404108:	40                   	inc    %eax
  404109:	00 ec                	add    %ch,%ah
  40410b:	40                   	inc    %eax
  40410c:	40                   	inc    %eax
  40410d:	00 de                	add    %bl,%dh
  40410f:	40                   	inc    %eax
  404110:	40                   	inc    %eax
  404111:	00 de                	add    %bl,%dh
  404113:	40                   	inc    %eax
  404114:	40                   	inc    %eax
  404115:	00 f0                	add    %dh,%al
  404117:	40                   	inc    %eax
  404118:	40                   	inc    %eax
  404119:	00 de                	add    %bl,%dh
  40411b:	40                   	inc    %eax
  40411c:	40                   	inc    %eax
  40411d:	00 de                	add    %bl,%dh
  40411f:	40                   	inc    %eax
  404120:	40                   	inc    %eax
  404121:	00 ec                	add    %ch,%ah
  404123:	40                   	inc    %eax
  404124:	40                   	inc    %eax
  404125:	00 8b ff 53 56 8b    	add    %cl,-0x74a9ac01(%ebx)
  40412b:	f1                   	int1
  40412c:	57                   	push   %edi
  40412d:	83 46 14 04          	addl   $0x4,0x14(%esi)
  404131:	8b 46 14             	mov    0x14(%esi),%eax
  404134:	8b 78 fc             	mov    -0x4(%eax),%edi
  404137:	85 ff                	test   %edi,%edi
  404139:	74 36                	je     0x404171
  40413b:	8b 5f 04             	mov    0x4(%edi),%ebx
  40413e:	85 db                	test   %ebx,%ebx
  404140:	74 2f                	je     0x404171
  404142:	ff 76 2c             	push   0x2c(%esi)
  404145:	0f b6 46 31          	movzbl 0x31(%esi),%eax
  404149:	50                   	push   %eax
  40414a:	ff 76 04             	push   0x4(%esi)
  40414d:	ff 36                	push   (%esi)
  40414f:	e8 8a f4 ff ff       	call   0x4035de
  404154:	83 c4 10             	add    $0x10,%esp
  404157:	89 5e 34             	mov    %ebx,0x34(%esi)
  40415a:	84 c0                	test   %al,%al
  40415c:	0f b7 07             	movzwl (%edi),%eax
  40415f:	74 0b                	je     0x40416c
  404161:	d1 e8                	shr    %eax
  404163:	89 46 38             	mov    %eax,0x38(%esi)
  404166:	c6 46 3c 01          	movb   $0x1,0x3c(%esi)
  40416a:	eb 17                	jmp    0x404183
  40416c:	89 46 38             	mov    %eax,0x38(%esi)
  40416f:	eb 0e                	jmp    0x40417f
  404171:	c7 46 34 6c 7a 41 00 	movl   $0x417a6c,0x34(%esi)
  404178:	c7 46 38 06 00 00 00 	movl   $0x6,0x38(%esi)
  40417f:	c6 46 3c 00          	movb   $0x0,0x3c(%esi)
  404183:	5f                   	pop    %edi
  404184:	5e                   	pop    %esi
  404185:	b0 01                	mov    $0x1,%al
  404187:	5b                   	pop    %ebx
  404188:	c3                   	ret
  404189:	8b ff                	mov    %edi,%edi
  40418b:	55                   	push   %ebp
  40418c:	8b ec                	mov    %esp,%ebp
  40418e:	51                   	push   %ecx
  40418f:	51                   	push   %ecx
  404190:	56                   	push   %esi
  404191:	8b f1                	mov    %ecx,%esi
  404193:	57                   	push   %edi
  404194:	83 4e 20 10          	orl    $0x10,0x20(%esi)
  404198:	8b 46 28             	mov    0x28(%esi),%eax
  40419b:	85 c0                	test   %eax,%eax
  40419d:	79 1d                	jns    0x4041bc
  40419f:	8a 46 31             	mov    0x31(%esi),%al
  4041a2:	3c 61                	cmp    $0x61,%al
  4041a4:	74 0d                	je     0x4041b3
  4041a6:	3c 41                	cmp    $0x41,%al
  4041a8:	74 09                	je     0x4041b3
  4041aa:	c7 46 28 06 00 00 00 	movl   $0x6,0x28(%esi)
  4041b1:	eb 1d                	jmp    0x4041d0
  4041b3:	c7 46 28 0d 00 00 00 	movl   $0xd,0x28(%esi)
  4041ba:	eb 14                	jmp    0x4041d0
  4041bc:	75 12                	jne    0x4041d0
  4041be:	8a 46 31             	mov    0x31(%esi),%al
  4041c1:	3c 67                	cmp    $0x67,%al
  4041c3:	74 04                	je     0x4041c9
  4041c5:	3c 47                	cmp    $0x47,%al
  4041c7:	75 07                	jne    0x4041d0
  4041c9:	c7 46 28 01 00 00 00 	movl   $0x1,0x28(%esi)
  4041d0:	8b 46 28             	mov    0x28(%esi),%eax
  4041d3:	8d 7e 40             	lea    0x40(%esi),%edi
  4041d6:	53                   	push   %ebx
  4041d7:	bb 5d 01 00 00       	mov    $0x15d,%ebx
  4041dc:	8b cf                	mov    %edi,%ecx
  4041de:	03 c3                	add    %ebx,%eax
  4041e0:	50                   	push   %eax
  4041e1:	e8 72 f3 ff ff       	call   0x403558
  4041e6:	84 c0                	test   %al,%al
  4041e8:	75 0c                	jne    0x4041f6
  4041ea:	8b cf                	mov    %edi,%ecx
  4041ec:	e8 4f f3 ff ff       	call   0x403540
  4041f1:	2b c3                	sub    %ebx,%eax
  4041f3:	89 46 28             	mov    %eax,0x28(%esi)
  4041f6:	8b 87 04 04 00 00    	mov    0x404(%edi),%eax
  4041fc:	85 c0                	test   %eax,%eax
  4041fe:	75 02                	jne    0x404202
  404200:	8b c7                	mov    %edi,%eax
  404202:	83 65 f8 00          	andl   $0x0,-0x8(%ebp)
  404206:	83 65 fc 00          	andl   $0x0,-0x4(%ebp)
  40420a:	89 46 34             	mov    %eax,0x34(%esi)
  40420d:	83 46 14 08          	addl   $0x8,0x14(%esi)
  404211:	8b 4e 14             	mov    0x14(%esi),%ecx
  404214:	8b 41 f8             	mov    -0x8(%ecx),%eax
  404217:	89 45 f8             	mov    %eax,-0x8(%ebp)
  40421a:	8b 41 fc             	mov    -0x4(%ecx),%eax
  40421d:	8b cf                	mov    %edi,%ecx
  40421f:	89 45 fc             	mov    %eax,-0x4(%ebp)
  404222:	e8 19 f3 ff ff       	call   0x403540
  404227:	8b 9f 04 04 00 00    	mov    0x404(%edi),%ebx
  40422d:	8b c8                	mov    %eax,%ecx
  40422f:	85 db                	test   %ebx,%ebx
  404231:	75 02                	jne    0x404235
  404233:	8b df                	mov    %edi,%ebx
  404235:	ff 76 08             	push   0x8(%esi)
  404238:	0f be 46 31          	movsbl 0x31(%esi),%eax
  40423c:	ff 76 04             	push   0x4(%esi)
  40423f:	ff 36                	push   (%esi)
  404241:	ff 76 28             	push   0x28(%esi)
  404244:	50                   	push   %eax
  404245:	51                   	push   %ecx
  404246:	8b cf                	mov    %edi,%ecx
  404248:	e8 d1 f3 ff ff       	call   0x40361e
  40424d:	50                   	push   %eax
  40424e:	8b cf                	mov    %edi,%ecx
  404250:	e8 eb f2 ff ff       	call   0x403540
  404255:	50                   	push   %eax
  404256:	8d 45 f8             	lea    -0x8(%ebp),%eax
  404259:	53                   	push   %ebx
  40425a:	50                   	push   %eax
  40425b:	e8 a0 87 00 00       	call   0x40ca00
  404260:	8b 46 20             	mov    0x20(%esi),%eax
  404263:	83 c4 28             	add    $0x28,%esp
  404266:	c1 e8 05             	shr    $0x5,%eax
  404269:	5b                   	pop    %ebx
  40426a:	a8 01                	test   $0x1,%al
  40426c:	74 13                	je     0x404281
  40426e:	83 7e 28 00          	cmpl   $0x0,0x28(%esi)
  404272:	75 0d                	jne    0x404281
  404274:	ff 76 08             	push   0x8(%esi)
  404277:	ff 76 34             	push   0x34(%esi)
  40427a:	e8 a5 f7 ff ff       	call   0x403a24
  40427f:	59                   	pop    %ecx
  404280:	59                   	pop    %ecx
  404281:	8a 46 31             	mov    0x31(%esi),%al
  404284:	3c 67                	cmp    $0x67,%al
  404286:	74 04                	je     0x40428c
  404288:	3c 47                	cmp    $0x47,%al
  40428a:	75 17                	jne    0x4042a3
  40428c:	8b 46 20             	mov    0x20(%esi),%eax
  40428f:	c1 e8 05             	shr    $0x5,%eax
  404292:	a8 01                	test   $0x1,%al
  404294:	75 0d                	jne    0x4042a3
  404296:	ff 76 08             	push   0x8(%esi)
  404299:	ff 76 34             	push   0x34(%esi)
  40429c:	e8 fa f6 ff ff       	call   0x40399b
  4042a1:	59                   	pop    %ecx
  4042a2:	59                   	pop    %ecx
  4042a3:	8b 46 34             	mov    0x34(%esi),%eax
  4042a6:	80 38 2d             	cmpb   $0x2d,(%eax)
  4042a9:	75 08                	jne    0x4042b3
  4042ab:	83 4e 20 40          	orl    $0x40,0x20(%esi)
  4042af:	40                   	inc    %eax
  4042b0:	89 46 34             	mov    %eax,0x34(%esi)
  4042b3:	8b 56 34             	mov    0x34(%esi),%edx
  4042b6:	8a 02                	mov    (%edx),%al
  4042b8:	3c 69                	cmp    $0x69,%al
  4042ba:	74 0c                	je     0x4042c8
  4042bc:	3c 49                	cmp    $0x49,%al
  4042be:	74 08                	je     0x4042c8
  4042c0:	3c 6e                	cmp    $0x6e,%al
  4042c2:	74 04                	je     0x4042c8
  4042c4:	3c 4e                	cmp    $0x4e,%al
  4042c6:	75 04                	jne    0x4042cc
  4042c8:	c6 46 31 73          	movb   $0x73,0x31(%esi)
  4042cc:	8d 7a 01             	lea    0x1(%edx),%edi
  4042cf:	8a 0a                	mov    (%edx),%cl
  4042d1:	42                   	inc    %edx
  4042d2:	84 c9                	test   %cl,%cl
  4042d4:	75 f9                	jne    0x4042cf
  4042d6:	2b d7                	sub    %edi,%edx
  4042d8:	b0 01                	mov    $0x1,%al
  4042da:	5f                   	pop    %edi
  4042db:	89 56 38             	mov    %edx,0x38(%esi)
  4042de:	5e                   	pop    %esi
  4042df:	8b e5                	mov    %ebp,%esp
  4042e1:	5d                   	pop    %ebp
  4042e2:	c3                   	ret
  4042e3:	8b ff                	mov    %edi,%edi
  4042e5:	56                   	push   %esi
  4042e6:	8b f1                	mov    %ecx,%esi
  4042e8:	57                   	push   %edi
  4042e9:	ff 76 2c             	push   0x2c(%esi)
  4042ec:	0f b6 46 31          	movzbl 0x31(%esi),%eax
  4042f0:	50                   	push   %eax
  4042f1:	ff 76 04             	push   0x4(%esi)
  4042f4:	ff 36                	push   (%esi)
  4042f6:	e8 e3 f2 ff ff       	call   0x4035de
  4042fb:	83 c4 10             	add    $0x10,%esp
  4042fe:	8d 7e 40             	lea    0x40(%esi),%edi
  404301:	84 c0                	test   %al,%al
  404303:	74 39                	je     0x40433e
  404305:	83 46 14 04          	addl   $0x4,0x14(%esi)
  404309:	8b 46 14             	mov    0x14(%esi),%eax
  40430c:	53                   	push   %ebx
  40430d:	8b 9f 04 04 00 00    	mov    0x404(%edi),%ebx
  404313:	0f b7 40 fc          	movzwl -0x4(%eax),%eax
  404317:	85 db                	test   %ebx,%ebx
  404319:	75 02                	jne    0x40431d
  40431b:	8b df                	mov    %edi,%ebx
  40431d:	50                   	push   %eax
  40431e:	8b cf                	mov    %edi,%ecx
  404320:	e8 1b f2 ff ff       	call   0x403540
  404325:	50                   	push   %eax
  404326:	8d 46 38             	lea    0x38(%esi),%eax
  404329:	53                   	push   %ebx
  40432a:	50                   	push   %eax
  40432b:	e8 ef 75 00 00       	call   0x40b91f
  404330:	83 c4 10             	add    $0x10,%esp
  404333:	5b                   	pop    %ebx
  404334:	85 c0                	test   %eax,%eax
  404336:	74 25                	je     0x40435d
  404338:	c6 46 30 01          	movb   $0x1,0x30(%esi)
  40433c:	eb 1f                	jmp    0x40435d
  40433e:	8b 8f 04 04 00 00    	mov    0x404(%edi),%ecx
  404344:	85 c9                	test   %ecx,%ecx
  404346:	75 02                	jne    0x40434a
  404348:	8b cf                	mov    %edi,%ecx
  40434a:	83 46 14 04          	addl   $0x4,0x14(%esi)
  40434e:	8b 46 14             	mov    0x14(%esi),%eax
  404351:	8a 40 fc             	mov    -0x4(%eax),%al
  404354:	88 01                	mov    %al,(%ecx)
  404356:	c7 46 38 01 00 00 00 	movl   $0x1,0x38(%esi)
  40435d:	8b 87 04 04 00 00    	mov    0x404(%edi),%eax
  404363:	85 c0                	test   %eax,%eax
  404365:	74 02                	je     0x404369
  404367:	8b f8                	mov    %eax,%edi
  404369:	89 7e 34             	mov    %edi,0x34(%esi)
  40436c:	b0 01                	mov    $0x1,%al
  40436e:	5f                   	pop    %edi
  40436f:	5e                   	pop    %esi
  404370:	c2 04 00             	ret    $0x4
  404373:	8b ff                	mov    %edi,%edi
  404375:	55                   	push   %ebp
  404376:	8b ec                	mov    %esp,%ebp
  404378:	53                   	push   %ebx
  404379:	56                   	push   %esi
  40437a:	8b f1                	mov    %ecx,%esi
  40437c:	ff 76 2c             	push   0x2c(%esi)
  40437f:	e8 46 fd ff ff       	call   0x4040ca
  404384:	59                   	pop    %ecx
  404385:	8b d8                	mov    %eax,%ebx
  404387:	8b cb                	mov    %ebx,%ecx
  404389:	83 e9 01             	sub    $0x1,%ecx
  40438c:	74 78                	je     0x404406
  40438e:	83 e9 01             	sub    $0x1,%ecx
  404391:	74 56                	je     0x4043e9
  404393:	49                   	dec    %ecx
  404394:	83 e9 01             	sub    $0x1,%ecx
  404397:	74 33                	je     0x4043cc
  404399:	83 e9 04             	sub    $0x4,%ecx
  40439c:	74 17                	je     0x4043b5
  40439e:	e8 c1 72 00 00       	call   0x40b664
  4043a3:	c7 00 16 00 00 00    	movl   $0x16,(%eax)
  4043a9:	e8 7f 6f 00 00       	call   0x40b32d
  4043ae:	32 c0                	xor    %al,%al
  4043b0:	e9 02 01 00 00       	jmp    0x4044b7
  4043b5:	8b 46 20             	mov    0x20(%esi),%eax
  4043b8:	83 46 14 08          	addl   $0x8,0x14(%esi)
  4043bc:	c1 e8 04             	shr    $0x4,%eax
  4043bf:	a8 01                	test   $0x1,%al
  4043c1:	8b 46 14             	mov    0x14(%esi),%eax
  4043c4:	8b 48 f8             	mov    -0x8(%eax),%ecx
  4043c7:	8b 50 fc             	mov    -0x4(%eax),%edx
  4043ca:	eb 58                	jmp    0x404424
  4043cc:	8b 46 20             	mov    0x20(%esi),%eax
  4043cf:	83 46 14 04          	addl   $0x4,0x14(%esi)
  4043d3:	c1 e8 04             	shr    $0x4,%eax
  4043d6:	a8 01                	test   $0x1,%al
  4043d8:	8b 46 14             	mov    0x14(%esi),%eax
  4043db:	74 05                	je     0x4043e2
  4043dd:	8b 40 fc             	mov    -0x4(%eax),%eax
  4043e0:	eb 3f                	jmp    0x404421
  4043e2:	8b 48 fc             	mov    -0x4(%eax),%ecx
  4043e5:	33 d2                	xor    %edx,%edx
  4043e7:	eb 3b                	jmp    0x404424
  4043e9:	8b 46 20             	mov    0x20(%esi),%eax
  4043ec:	83 46 14 04          	addl   $0x4,0x14(%esi)
  4043f0:	c1 e8 04             	shr    $0x4,%eax
  4043f3:	a8 01                	test   $0x1,%al
  4043f5:	8b 46 14             	mov    0x14(%esi),%eax
  4043f8:	74 06                	je     0x404400
  4043fa:	0f bf 40 fc          	movswl -0x4(%eax),%eax
  4043fe:	eb 21                	jmp    0x404421
  404400:	0f b7 40 fc          	movzwl -0x4(%eax),%eax
  404404:	eb 1b                	jmp    0x404421
  404406:	8b 46 20             	mov    0x20(%esi),%eax
  404409:	83 46 14 04          	addl   $0x4,0x14(%esi)
  40440d:	c1 e8 04             	shr    $0x4,%eax
  404410:	a8 01                	test   $0x1,%al
  404412:	8b 46 14             	mov    0x14(%esi),%eax
  404415:	74 06                	je     0x40441d
  404417:	0f be 40 fc          	movsbl -0x4(%eax),%eax
  40441b:	eb 04                	jmp    0x404421
  40441d:	0f b6 40 fc          	movzbl -0x4(%eax),%eax
  404421:	99                   	cltd
  404422:	8b c8                	mov    %eax,%ecx
  404424:	57                   	push   %edi
  404425:	8b 7e 20             	mov    0x20(%esi),%edi
  404428:	8b c7                	mov    %edi,%eax
  40442a:	c1 e8 04             	shr    $0x4,%eax
  40442d:	a8 01                	test   $0x1,%al
  40442f:	74 17                	je     0x404448
  404431:	85 d2                	test   %edx,%edx
  404433:	7f 13                	jg     0x404448
  404435:	7c 04                	jl     0x40443b
  404437:	85 c9                	test   %ecx,%ecx
  404439:	73 0d                	jae    0x404448
  40443b:	f7 d9                	neg    %ecx
  40443d:	83 d2 00             	adc    $0x0,%edx
  404440:	f7 da                	neg    %edx
  404442:	83 cf 40             	or     $0x40,%edi
  404445:	89 7e 20             	mov    %edi,0x20(%esi)
  404448:	83 7e 28 00          	cmpl   $0x0,0x28(%esi)
  40444c:	5f                   	pop    %edi
  40444d:	7d 09                	jge    0x404458
  40444f:	c7 46 28 01 00 00 00 	movl   $0x1,0x28(%esi)
  404456:	eb 11                	jmp    0x404469
  404458:	83 66 20 f7          	andl   $0xfffffff7,0x20(%esi)
  40445c:	b8 00 02 00 00       	mov    $0x200,%eax
  404461:	39 46 28             	cmp    %eax,0x28(%esi)
  404464:	7e 03                	jle    0x404469
  404466:	89 46 28             	mov    %eax,0x28(%esi)
  404469:	8b c1                	mov    %ecx,%eax
  40446b:	0b c2                	or     %edx,%eax
  40446d:	75 04                	jne    0x404473
  40446f:	83 66 20 df          	andl   $0xffffffdf,0x20(%esi)
  404473:	ff 75 0c             	push   0xc(%ebp)
  404476:	ff 75 08             	push   0x8(%ebp)
  404479:	83 fb 08             	cmp    $0x8,%ebx
  40447c:	75 0b                	jne    0x404489
  40447e:	52                   	push   %edx
  40447f:	51                   	push   %ecx
  404480:	8b ce                	mov    %esi,%ecx
  404482:	e8 2a f2 ff ff       	call   0x4036b1
  404487:	eb 08                	jmp    0x404491
  404489:	51                   	push   %ecx
  40448a:	8b ce                	mov    %esi,%ecx
  40448c:	e8 ab f1 ff ff       	call   0x40363c
  404491:	8b 46 20             	mov    0x20(%esi),%eax
  404494:	c1 e8 07             	shr    $0x7,%eax
  404497:	a8 01                	test   $0x1,%al
  404499:	74 1a                	je     0x4044b5
  40449b:	83 7e 38 00          	cmpl   $0x0,0x38(%esi)
  40449f:	74 08                	je     0x4044a9
  4044a1:	8b 46 34             	mov    0x34(%esi),%eax
  4044a4:	80 38 30             	cmpb   $0x30,(%eax)
  4044a7:	74 0c                	je     0x4044b5
  4044a9:	ff 4e 34             	decl   0x34(%esi)
  4044ac:	8b 4e 34             	mov    0x34(%esi),%ecx
  4044af:	c6 01 30             	movb   $0x30,(%ecx)
  4044b2:	ff 46 38             	incl   0x38(%esi)
  4044b5:	b0 01                	mov    $0x1,%al
  4044b7:	5e                   	pop    %esi
  4044b8:	5b                   	pop    %ebx
  4044b9:	5d                   	pop    %ebp
  4044ba:	c2 08 00             	ret    $0x8
  4044bd:	8b ff                	mov    %edi,%edi
  4044bf:	56                   	push   %esi
  4044c0:	8b f1                	mov    %ecx,%esi
  4044c2:	57                   	push   %edi
  4044c3:	83 46 14 04          	addl   $0x4,0x14(%esi)
  4044c7:	8b 46 14             	mov    0x14(%esi),%eax
  4044ca:	8b 78 fc             	mov    -0x4(%eax),%edi
  4044cd:	e8 c7 86 00 00       	call   0x40cb99
  4044d2:	85 c0                	test   %eax,%eax
  4044d4:	75 14                	jne    0x4044ea
  4044d6:	e8 89 71 00 00       	call   0x40b664
  4044db:	c7 00 16 00 00 00    	movl   $0x16,(%eax)
  4044e1:	e8 47 6e 00 00       	call   0x40b32d
  4044e6:	32 c0                	xor    %al,%al
  4044e8:	eb 44                	jmp    0x40452e
  4044ea:	ff 76 2c             	push   0x2c(%esi)
  4044ed:	e8 d8 fb ff ff       	call   0x4040ca
  4044f2:	59                   	pop    %ecx
  4044f3:	83 e8 01             	sub    $0x1,%eax
  4044f6:	74 2b                	je     0x404523
  4044f8:	83 e8 01             	sub    $0x1,%eax
  4044fb:	74 1d                	je     0x40451a
  4044fd:	48                   	dec    %eax
  4044fe:	83 e8 01             	sub    $0x1,%eax
  404501:	74 10                	je     0x404513
  404503:	83 e8 04             	sub    $0x4,%eax
  404506:	75 ce                	jne    0x4044d6
  404508:	8b 46 18             	mov    0x18(%esi),%eax
  40450b:	99                   	cltd
  40450c:	89 07                	mov    %eax,(%edi)
  40450e:	89 57 04             	mov    %edx,0x4(%edi)
  404511:	eb 15                	jmp    0x404528
  404513:	8b 46 18             	mov    0x18(%esi),%eax
  404516:	89 07                	mov    %eax,(%edi)
  404518:	eb 0e                	jmp    0x404528
  40451a:	66 8b 46 18          	mov    0x18(%esi),%ax
  40451e:	66 89 07             	mov    %ax,(%edi)
  404521:	eb 05                	jmp    0x404528
  404523:	8a 46 18             	mov    0x18(%esi),%al
  404526:	88 07                	mov    %al,(%edi)
  404528:	c6 46 30 01          	movb   $0x1,0x30(%esi)
  40452c:	b0 01                	mov    $0x1,%al
  40452e:	5f                   	pop    %edi
  40452f:	5e                   	pop    %esi
  404530:	c3                   	ret
  404531:	8b 51 20             	mov    0x20(%ecx),%edx
  404534:	8b c2                	mov    %edx,%eax
  404536:	c1 e8 05             	shr    $0x5,%eax
  404539:	a8 01                	test   $0x1,%al
  40453b:	74 09                	je     0x404546
  40453d:	81 ca 80 00 00 00    	or     $0x80,%edx
  404543:	89 51 20             	mov    %edx,0x20(%ecx)
  404546:	6a 00                	push   $0x0
  404548:	6a 08                	push   $0x8
  40454a:	e8 24 fe ff ff       	call   0x404373
  40454f:	c3                   	ret
  404550:	6a 01                	push   $0x1
  404552:	6a 10                	push   $0x10
  404554:	c7 41 28 08 00 00 00 	movl   $0x8,0x28(%ecx)
  40455b:	c7 41 2c 0a 00 00 00 	movl   $0xa,0x2c(%ecx)
  404562:	e8 0c fe ff ff       	call   0x404373
  404567:	c3                   	ret
  404568:	8b ff                	mov    %edi,%edi
  40456a:	53                   	push   %ebx
  40456b:	56                   	push   %esi
  40456c:	8b f1                	mov    %ecx,%esi
  40456e:	57                   	push   %edi
  40456f:	83 46 14 04          	addl   $0x4,0x14(%esi)
  404573:	8b 46 14             	mov    0x14(%esi),%eax
  404576:	8b 7e 28             	mov    0x28(%esi),%edi
  404579:	8b 58 fc             	mov    -0x4(%eax),%ebx
  40457c:	89 5e 34             	mov    %ebx,0x34(%esi)
  40457f:	83 ff ff             	cmp    $0xffffffff,%edi
  404582:	75 05                	jne    0x404589
  404584:	bf ff ff ff 7f       	mov    $0x7fffffff,%edi
  404589:	ff 76 2c             	push   0x2c(%esi)
  40458c:	0f b6 46 31          	movzbl 0x31(%esi),%eax
  404590:	50                   	push   %eax
  404591:	ff 76 04             	push   0x4(%esi)
  404594:	ff 36                	push   (%esi)
  404596:	e8 43 f0 ff ff       	call   0x4035de
  40459b:	83 c4 10             	add    $0x10,%esp
  40459e:	84 c0                	test   %al,%al
  4045a0:	74 1a                	je     0x4045bc
  4045a2:	85 db                	test   %ebx,%ebx
  4045a4:	75 07                	jne    0x4045ad
  4045a6:	c7 46 34 74 7a 41 00 	movl   $0x417a74,0x34(%esi)
  4045ad:	57                   	push   %edi
  4045ae:	ff 76 34             	push   0x34(%esi)
  4045b1:	c6 46 3c 01          	movb   $0x1,0x3c(%esi)
  4045b5:	e8 a9 74 00 00       	call   0x40ba63
  4045ba:	eb 14                	jmp    0x4045d0
  4045bc:	85 db                	test   %ebx,%ebx
  4045be:	75 07                	jne    0x4045c7
  4045c0:	c7 46 34 6c 7a 41 00 	movl   $0x417a6c,0x34(%esi)
  4045c7:	57                   	push   %edi
  4045c8:	ff 76 34             	push   0x34(%esi)
  4045cb:	e8 6c 73 00 00       	call   0x40b93c
  4045d0:	59                   	pop    %ecx
  4045d1:	59                   	pop    %ecx
  4045d2:	5f                   	pop    %edi
  4045d3:	89 46 38             	mov    %eax,0x38(%esi)
  4045d6:	b0 01                	mov    $0x1,%al
  4045d8:	5e                   	pop    %esi
  4045d9:	5b                   	pop    %ebx
  4045da:	c3                   	ret
  4045db:	8b 01                	mov    (%ecx),%eax
  4045dd:	85 c0                	test   %eax,%eax
  4045df:	75 13                	jne    0x4045f4
  4045e1:	e8 7e 70 00 00       	call   0x40b664
  4045e6:	c7 00 16 00 00 00    	movl   $0x16,(%eax)
  4045ec:	e8 3c 6d 00 00       	call   0x40b32d
  4045f1:	32 c0                	xor    %al,%al
  4045f3:	c3                   	ret
  4045f4:	50                   	push   %eax
  4045f5:	e8 02 00 00 00       	call   0x4045fc
  4045fa:	59                   	pop    %ecx
  4045fb:	c3                   	ret
  4045fc:	8b ff                	mov    %edi,%edi
  4045fe:	55                   	push   %ebp
  4045ff:	8b ec                	mov    %esp,%ebp
  404601:	8b 4d 08             	mov    0x8(%ebp),%ecx
  404604:	56                   	push   %esi
  404605:	8b 41 0c             	mov    0xc(%ecx),%eax
  404608:	c1 e8 0c             	shr    $0xc,%eax
  40460b:	a8 01                	test   $0x1,%al
  40460d:	75 6a                	jne    0x404679
  40460f:	51                   	push   %ecx
  404610:	e8 35 85 00 00       	call   0x40cb4a
  404615:	8b d0                	mov    %eax,%edx
  404617:	be c0 01 42 00       	mov    $0x4201c0,%esi
  40461c:	59                   	pop    %ecx
  40461d:	83 fa ff             	cmp    $0xffffffff,%edx
  404620:	74 19                	je     0x40463b
  404622:	83 fa fe             	cmp    $0xfffffffe,%edx
  404625:	74 14                	je     0x40463b
  404627:	83 e0 3f             	and    $0x3f,%eax
  40462a:	8b ca                	mov    %edx,%ecx
  40462c:	6b c0 30             	imul   $0x30,%eax,%eax
  40462f:	c1 f9 06             	sar    $0x6,%ecx
  404632:	03 04 8d 88 0e 42 00 	add    0x420e88(,%ecx,4),%eax
  404639:	eb 02                	jmp    0x40463d
  40463b:	8b c6                	mov    %esi,%eax
  40463d:	80 78 29 00          	cmpb   $0x0,0x29(%eax)
  404641:	75 22                	jne    0x404665
  404643:	83 fa ff             	cmp    $0xffffffff,%edx
  404646:	74 17                	je     0x40465f
  404648:	83 fa fe             	cmp    $0xfffffffe,%edx
  40464b:	74 12                	je     0x40465f
  40464d:	8b c2                	mov    %edx,%eax
  40464f:	83 e2 3f             	and    $0x3f,%edx
  404652:	6b f2 30             	imul   $0x30,%edx,%esi
  404655:	c1 f8 06             	sar    $0x6,%eax
  404658:	03 34 85 88 0e 42 00 	add    0x420e88(,%eax,4),%esi
  40465f:	f6 46 2d 01          	testb  $0x1,0x2d(%esi)
  404663:	74 14                	je     0x404679
  404665:	e8 fa 6f 00 00       	call   0x40b664
  40466a:	c7 00 16 00 00 00    	movl   $0x16,(%eax)
  404670:	e8 b8 6c 00 00       	call   0x40b32d
  404675:	32 c0                	xor    %al,%al
  404677:	eb 02                	jmp    0x40467b
  404679:	b0 01                	mov    $0x1,%al
  40467b:	5e                   	pop    %esi
  40467c:	5d                   	pop    %ebp
  40467d:	c3                   	ret
  40467e:	8b ff                	mov    %edi,%edi
  404680:	55                   	push   %ebp
  404681:	8b ec                	mov    %esp,%ebp
  404683:	8b 01                	mov    (%ecx),%eax
  404685:	8b 40 0c             	mov    0xc(%eax),%eax
  404688:	c1 e8 0c             	shr    $0xc,%eax
  40468b:	a8 01                	test   $0x1,%al
  40468d:	74 08                	je     0x404697
  40468f:	8b 01                	mov    (%ecx),%eax
  404691:	83 78 04 00          	cmpl   $0x0,0x4(%eax)
  404695:	74 1b                	je     0x4046b2
  404697:	ff 31                	push   (%ecx)
  404699:	0f be 45 08          	movsbl 0x8(%ebp),%eax
  40469d:	50                   	push   %eax
  40469e:	e8 cd 84 00 00       	call   0x40cb70
  4046a3:	59                   	pop    %ecx
  4046a4:	59                   	pop    %ecx
  4046a5:	83 f8 ff             	cmp    $0xffffffff,%eax
  4046a8:	75 08                	jne    0x4046b2
  4046aa:	8b 45 0c             	mov    0xc(%ebp),%eax
  4046ad:	83 08 ff             	orl    $0xffffffff,(%eax)
  4046b0:	eb 05                	jmp    0x4046b7
  4046b2:	8b 45 0c             	mov    0xc(%ebp),%eax
  4046b5:	ff 00                	incl   (%eax)
  4046b7:	5d                   	pop    %ebp
  4046b8:	c2 08 00             	ret    $0x8
  4046bb:	8b ff                	mov    %edi,%edi
  4046bd:	55                   	push   %ebp
  4046be:	8b ec                	mov    %esp,%ebp
  4046c0:	83 ec 10             	sub    $0x10,%esp
  4046c3:	a1 04 00 42 00       	mov    0x420004,%eax
  4046c8:	33 c5                	xor    %ebp,%eax
  4046ca:	89 45 fc             	mov    %eax,-0x4(%ebp)
  4046cd:	53                   	push   %ebx
  4046ce:	56                   	push   %esi
  4046cf:	8b f1                	mov    %ecx,%esi
  4046d1:	57                   	push   %edi
  4046d2:	80 7e 3c 00          	cmpb   $0x0,0x3c(%esi)
  4046d6:	74 5d                	je     0x404735
  4046d8:	8b 46 38             	mov    0x38(%esi),%eax
  4046db:	85 c0                	test   %eax,%eax
  4046dd:	7e 56                	jle    0x404735
  4046df:	8b 7e 34             	mov    0x34(%esi),%edi
  4046e2:	33 db                	xor    %ebx,%ebx
  4046e4:	85 c0                	test   %eax,%eax
  4046e6:	74 65                	je     0x40474d
  4046e8:	0f b7 07             	movzwl (%edi),%eax
  4046eb:	8d 7f 02             	lea    0x2(%edi),%edi
  4046ee:	83 65 f0 00          	andl   $0x0,-0x10(%ebp)
  4046f2:	50                   	push   %eax
  4046f3:	6a 06                	push   $0x6
  4046f5:	8d 45 f4             	lea    -0xc(%ebp),%eax
  4046f8:	50                   	push   %eax
  4046f9:	8d 45 f0             	lea    -0x10(%ebp),%eax
  4046fc:	50                   	push   %eax
  4046fd:	e8 1d 72 00 00       	call   0x40b91f
  404702:	83 c4 10             	add    $0x10,%esp
  404705:	85 c0                	test   %eax,%eax
  404707:	75 26                	jne    0x40472f
  404709:	39 45 f0             	cmp    %eax,-0x10(%ebp)
  40470c:	74 21                	je     0x40472f
  40470e:	ff 76 0c             	push   0xc(%esi)
  404711:	8d 46 18             	lea    0x18(%esi),%eax
  404714:	50                   	push   %eax
  404715:	ff 75 f0             	push   -0x10(%ebp)
  404718:	8d 45 f4             	lea    -0xc(%ebp),%eax
  40471b:	50                   	push   %eax
  40471c:	8d 8e 48 04 00 00    	lea    0x448(%esi),%ecx
  404722:	e8 3b 00 00 00       	call   0x404762
  404727:	43                   	inc    %ebx
  404728:	3b 5e 38             	cmp    0x38(%esi),%ebx
  40472b:	75 bb                	jne    0x4046e8
  40472d:	eb 1e                	jmp    0x40474d
  40472f:	83 4e 18 ff          	orl    $0xffffffff,0x18(%esi)
  404733:	eb 18                	jmp    0x40474d
  404735:	ff 76 0c             	push   0xc(%esi)
  404738:	8d 46 18             	lea    0x18(%esi),%eax
  40473b:	50                   	push   %eax
  40473c:	ff 76 38             	push   0x38(%esi)
  40473f:	8d 8e 48 04 00 00    	lea    0x448(%esi),%ecx
  404745:	ff 76 34             	push   0x34(%esi)
  404748:	e8 15 00 00 00       	call   0x404762
  40474d:	8b 4d fc             	mov    -0x4(%ebp),%ecx
  404750:	b0 01                	mov    $0x1,%al
  404752:	5f                   	pop    %edi
  404753:	5e                   	pop    %esi
  404754:	33 cd                	xor    %ebp,%ecx
  404756:	5b                   	pop    %ebx
  404757:	e8 68 d4 ff ff       	call   0x401bc4
  40475c:	8b e5                	mov    %ebp,%esp
  40475e:	5d                   	pop    %ebp
  40475f:	c2 04 00             	ret    $0x4
  404762:	8b ff                	mov    %edi,%edi
  404764:	55                   	push   %ebp
  404765:	8b ec                	mov    %esp,%ebp
  404767:	51                   	push   %ecx
  404768:	51                   	push   %ecx
  404769:	53                   	push   %ebx
  40476a:	8b d9                	mov    %ecx,%ebx
  40476c:	8b 03                	mov    (%ebx),%eax
  40476e:	8b 40 0c             	mov    0xc(%eax),%eax
  404771:	c1 e8 0c             	shr    $0xc,%eax
  404774:	a8 01                	test   $0x1,%al
  404776:	74 12                	je     0x40478a
  404778:	8b 03                	mov    (%ebx),%eax
  40477a:	83 78 04 00          	cmpl   $0x0,0x4(%eax)
  40477e:	75 0a                	jne    0x40478a
  404780:	8b 4d 10             	mov    0x10(%ebp),%ecx
  404783:	8b 45 0c             	mov    0xc(%ebp),%eax
  404786:	01 01                	add    %eax,(%ecx)
  404788:	eb 5b                	jmp    0x4047e5
  40478a:	8b 45 0c             	mov    0xc(%ebp),%eax
  40478d:	56                   	push   %esi
  40478e:	8b 75 14             	mov    0x14(%ebp),%esi
  404791:	57                   	push   %edi
  404792:	8b 7d 08             	mov    0x8(%ebp),%edi
  404795:	03 c7                	add    %edi,%eax
  404797:	89 45 fc             	mov    %eax,-0x4(%ebp)
  40479a:	8b 0e                	mov    (%esi),%ecx
  40479c:	83 26 00             	andl   $0x0,(%esi)
  40479f:	89 4d f8             	mov    %ecx,-0x8(%ebp)
  4047a2:	3b f8                	cmp    %eax,%edi
  4047a4:	74 32                	je     0x4047d8
  4047a6:	8b 45 10             	mov    0x10(%ebp),%eax
  4047a9:	50                   	push   %eax
  4047aa:	0f b6 07             	movzbl (%edi),%eax
  4047ad:	8b cb                	mov    %ebx,%ecx
  4047af:	50                   	push   %eax
  4047b0:	e8 c9 fe ff ff       	call   0x40467e
  4047b5:	8b 45 10             	mov    0x10(%ebp),%eax
  4047b8:	83 38 ff             	cmpl   $0xffffffff,(%eax)
  4047bb:	75 12                	jne    0x4047cf
  4047bd:	83 3e 2a             	cmpl   $0x2a,(%esi)
  4047c0:	75 13                	jne    0x4047d5
  4047c2:	50                   	push   %eax
  4047c3:	6a 3f                	push   $0x3f
  4047c5:	8b cb                	mov    %ebx,%ecx
  4047c7:	e8 b2 fe ff ff       	call   0x40467e
  4047cc:	8b 45 10             	mov    0x10(%ebp),%eax
  4047cf:	47                   	inc    %edi
  4047d0:	3b 7d fc             	cmp    -0x4(%ebp),%edi
  4047d3:	75 d4                	jne    0x4047a9
  4047d5:	8b 4d f8             	mov    -0x8(%ebp),%ecx
  4047d8:	83 3e 00             	cmpl   $0x0,(%esi)
  4047db:	75 06                	jne    0x4047e3
